
key_elf:     file format elf32-littlearm


Disassembly of section .text:

00000000 <_start>:
   0:	e3a00453 	mov	r0, #1392508928	; 0x53000000
   4:	e3a01000 	mov	r1, #0
   8:	e5801000 	str	r1, [r0]
   c:	e3a0da01 	mov	sp, #4096	; 0x1000
  10:	eb000000 	bl	18 <main>

00000014 <halt_loop>:
  14:	eafffffe 	b	14 <halt_loop>

00000018 <main>:
  18:	e52db004 	push	{fp}		; (str fp, [sp, #-4]!)
  1c:	e28db000 	add	fp, sp, #0
  20:	e24dd00c 	sub	sp, sp, #12
  24:	e59f31b0 	ldr	r3, [pc, #432]	; 1dc <main+0x1c4>
  28:	e59f21ac 	ldr	r2, [pc, #428]	; 1dc <main+0x1c4>
  2c:	e5922000 	ldr	r2, [r2]
  30:	e3c22c03 	bic	r2, r2, #768	; 0x300
  34:	e5832000 	str	r2, [r3]
  38:	e59f319c 	ldr	r3, [pc, #412]	; 1dc <main+0x1c4>
  3c:	e59f2198 	ldr	r2, [pc, #408]	; 1dc <main+0x1c4>
  40:	e5922000 	ldr	r2, [r2]
  44:	e3822c01 	orr	r2, r2, #256	; 0x100
  48:	e5832000 	str	r2, [r3]
  4c:	e59f3188 	ldr	r3, [pc, #392]	; 1dc <main+0x1c4>
  50:	e59f2184 	ldr	r2, [pc, #388]	; 1dc <main+0x1c4>
  54:	e5922000 	ldr	r2, [r2]
  58:	e3c22b03 	bic	r2, r2, #3072	; 0xc00
  5c:	e5832000 	str	r2, [r3]
  60:	e59f3174 	ldr	r3, [pc, #372]	; 1dc <main+0x1c4>
  64:	e59f2170 	ldr	r2, [pc, #368]	; 1dc <main+0x1c4>
  68:	e5922000 	ldr	r2, [r2]
  6c:	e3822b01 	orr	r2, r2, #1024	; 0x400
  70:	e5832000 	str	r2, [r3]
  74:	e59f3160 	ldr	r3, [pc, #352]	; 1dc <main+0x1c4>
  78:	e59f215c 	ldr	r2, [pc, #348]	; 1dc <main+0x1c4>
  7c:	e5922000 	ldr	r2, [r2]
  80:	e3c22a03 	bic	r2, r2, #12288	; 0x3000
  84:	e5832000 	str	r2, [r3]
  88:	e59f314c 	ldr	r3, [pc, #332]	; 1dc <main+0x1c4>
  8c:	e59f2148 	ldr	r2, [pc, #328]	; 1dc <main+0x1c4>
  90:	e5922000 	ldr	r2, [r2]
  94:	e3822a01 	orr	r2, r2, #4096	; 0x1000
  98:	e5832000 	str	r2, [r3]
  9c:	e59f3138 	ldr	r3, [pc, #312]	; 1dc <main+0x1c4>
  a0:	e59f2134 	ldr	r2, [pc, #308]	; 1dc <main+0x1c4>
  a4:	e5922000 	ldr	r2, [r2]
  a8:	e3c22003 	bic	r2, r2, #3
  ac:	e5832000 	str	r2, [r3]
  b0:	e59f3124 	ldr	r3, [pc, #292]	; 1dc <main+0x1c4>
  b4:	e59f2120 	ldr	r2, [pc, #288]	; 1dc <main+0x1c4>
  b8:	e5922000 	ldr	r2, [r2]
  bc:	e5832000 	str	r2, [r3]
  c0:	e59f3114 	ldr	r3, [pc, #276]	; 1dc <main+0x1c4>
  c4:	e59f2110 	ldr	r2, [pc, #272]	; 1dc <main+0x1c4>
  c8:	e5922000 	ldr	r2, [r2]
  cc:	e3c22030 	bic	r2, r2, #48	; 0x30
  d0:	e5832000 	str	r2, [r3]
  d4:	e59f3100 	ldr	r3, [pc, #256]	; 1dc <main+0x1c4>
  d8:	e59f20fc 	ldr	r2, [pc, #252]	; 1dc <main+0x1c4>
  dc:	e5922000 	ldr	r2, [r2]
  e0:	e5832000 	str	r2, [r3]
  e4:	e59f30f4 	ldr	r3, [pc, #244]	; 1e0 <main+0x1c8>
  e8:	e59f20f0 	ldr	r2, [pc, #240]	; 1e0 <main+0x1c8>
  ec:	e5922000 	ldr	r2, [r2]
  f0:	e3c220c0 	bic	r2, r2, #192	; 0xc0
  f4:	e5832000 	str	r2, [r3]
  f8:	e59f30e0 	ldr	r3, [pc, #224]	; 1e0 <main+0x1c8>
  fc:	e59f20dc 	ldr	r2, [pc, #220]	; 1e0 <main+0x1c8>
 100:	e5922000 	ldr	r2, [r2]
 104:	e5832000 	str	r2, [r3]
 108:	e59f30d4 	ldr	r3, [pc, #212]	; 1e4 <main+0x1cc>
 10c:	e5933000 	ldr	r3, [r3]
 110:	e50b3008 	str	r3, [fp, #-8]
 114:	e51b3008 	ldr	r3, [fp, #-8]
 118:	e2033001 	and	r3, r3, #1
 11c:	e20330ff 	and	r3, r3, #255	; 0xff
 120:	e3530000 	cmp	r3, #0
 124:	0a000005 	beq	140 <main+0x128>
 128:	e59f30b4 	ldr	r3, [pc, #180]	; 1e4 <main+0x1cc>
 12c:	e59f20b0 	ldr	r2, [pc, #176]	; 1e4 <main+0x1cc>
 130:	e5922000 	ldr	r2, [r2]
 134:	e3822010 	orr	r2, r2, #16
 138:	e5832000 	str	r2, [r3]
 13c:	ea000004 	b	154 <main+0x13c>
 140:	e59f309c 	ldr	r3, [pc, #156]	; 1e4 <main+0x1cc>
 144:	e59f2098 	ldr	r2, [pc, #152]	; 1e4 <main+0x1cc>
 148:	e5922000 	ldr	r2, [r2]
 14c:	e3c22010 	bic	r2, r2, #16
 150:	e5832000 	str	r2, [r3]
 154:	e51b3008 	ldr	r3, [fp, #-8]
 158:	e2033004 	and	r3, r3, #4
 15c:	e3530000 	cmp	r3, #0
 160:	0a000005 	beq	17c <main+0x164>
 164:	e59f3078 	ldr	r3, [pc, #120]	; 1e4 <main+0x1cc>
 168:	e59f2074 	ldr	r2, [pc, #116]	; 1e4 <main+0x1cc>
 16c:	e5922000 	ldr	r2, [r2]
 170:	e3822020 	orr	r2, r2, #32
 174:	e5832000 	str	r2, [r3]
 178:	ea000004 	b	190 <main+0x178>
 17c:	e59f3060 	ldr	r3, [pc, #96]	; 1e4 <main+0x1cc>
 180:	e59f205c 	ldr	r2, [pc, #92]	; 1e4 <main+0x1cc>
 184:	e5922000 	ldr	r2, [r2]
 188:	e3c22020 	bic	r2, r2, #32
 18c:	e5832000 	str	r2, [r3]
 190:	e59f3050 	ldr	r3, [pc, #80]	; 1e8 <main+0x1d0>
 194:	e5933000 	ldr	r3, [r3]
 198:	e50b3008 	str	r3, [fp, #-8]
 19c:	e51b3008 	ldr	r3, [fp, #-8]
 1a0:	e2033008 	and	r3, r3, #8
 1a4:	e3530000 	cmp	r3, #0
 1a8:	0a000005 	beq	1c4 <main+0x1ac>
 1ac:	e59f3030 	ldr	r3, [pc, #48]	; 1e4 <main+0x1cc>
 1b0:	e59f202c 	ldr	r2, [pc, #44]	; 1e4 <main+0x1cc>
 1b4:	e5922000 	ldr	r2, [r2]
 1b8:	e3822040 	orr	r2, r2, #64	; 0x40
 1bc:	e5832000 	str	r2, [r3]
 1c0:	eaffffd0 	b	108 <main+0xf0>
 1c4:	e59f3018 	ldr	r3, [pc, #24]	; 1e4 <main+0x1cc>
 1c8:	e59f2014 	ldr	r2, [pc, #20]	; 1e4 <main+0x1cc>
 1cc:	e5922000 	ldr	r2, [r2]
 1d0:	e3c22040 	bic	r2, r2, #64	; 0x40
 1d4:	e5832000 	str	r2, [r3]
 1d8:	eaffffca 	b	108 <main+0xf0>
 1dc:	56000050 	undefined instruction 0x56000050
 1e0:	56000060 	strpl	r0, [r0], -r0, rrx
 1e4:	56000054 	undefined instruction 0x56000054
 1e8:	56000064 	strpl	r0, [r0], -r4, rrx
