
adc_ts_elf:     file format elf32-littlearm

Disassembly of section .init:

00000000 <_start>:
   0:	ea000006 	b	20 <Reset>

00000004 <HandleUndef>:
   4:	eafffffe 	b	4 <HandleUndef>

00000008 <HandleSWI>:
   8:	eafffffe 	b	8 <HandleSWI>

0000000c <HandlePrefetchAbort>:
   c:	eafffffe 	b	c <HandlePrefetchAbort>

00000010 <HandleDataAbort>:
  10:	eafffffe 	b	10 <HandleDataAbort>

00000014 <HandleNotUsed>:
  14:	eafffffe 	b	14 <HandleNotUsed>
  18:	ea000014 	b	70 <HandleIRQ>

0000001c <HandleFIQ>:
  1c:	eafffffe 	b	1c <HandleFIQ>

00000020 <Reset>:
  20:	e3a0da01 	mov	sp, #4096	; 0x1000
  24:	eb00001c 	bl	9c <disable_watch_dog>
  28:	eb00001f 	bl	ac <clock_init>
  2c:	eb000038 	bl	114 <memsetup>
  30:	eb00010e 	bl	470 <nand_init>
  34:	e3a00203 	mov	r0, #805306368	; 0x30000000
  38:	e3a01a01 	mov	r1, #4096	; 0x1000
  3c:	e3a02901 	mov	r2, #16384	; 0x4000
  40:	eb000062 	bl	1d0 <CopyCode2SDRAM>
  44:	eb000056 	bl	1a4 <clean_bss>
  48:	e321f0d2 	msr	CPSR_c, #210	; 0xd2
  4c:	e3a0d431 	mov	sp, #822083584	; 0x31000000
  50:	e321f0df 	msr	CPSR_c, #223	; 0xdf
  54:	e3a0d30d 	mov	sp, #872415232	; 0x34000000
  58:	e59fe024 	ldr	lr, [pc, #36]	; 84 <.init+0x84>
  5c:	e59ff024 	ldr	pc, [pc, #36]	; 88 <.init+0x88>

00000060 <ret_initirq>:
  60:	e321f05f 	msr	CPSR_c, #95	; 0x5f
  64:	e59fe020 	ldr	lr, [pc, #32]	; 8c <.init+0x8c>
  68:	e59ff020 	ldr	pc, [pc, #32]	; 90 <.init+0x90>

0000006c <halt_loop>:
  6c:	eafffffe 	b	6c <halt_loop>

00000070 <HandleIRQ>:
  70:	e24ee004 	sub	lr, lr, #4	; 0x4
  74:	e92d5fff 	stmdb	sp!, {r0, r1, r2, r3, r4, r5, r6, r7, r8, r9, sl, fp, ip, lr}
  78:	e59fe014 	ldr	lr, [pc, #20]	; 94 <.init+0x94>
  7c:	e59ff014 	ldr	pc, [pc, #20]	; 98 <.init+0x98>

00000080 <int_return>:
  80:	e8fd9fff 	ldmia	sp!, {r0, r1, r2, r3, r4, r5, r6, r7, r8, r9, sl, fp, ip, pc}^
  84:	00000060 	andeq	r0, r0, r0, rrx
  88:	30000004 	andcc	r0, r0, r4
  8c:	0000006c 	andeq	r0, r0, ip, rrx
  90:	300004b0 	strcch	r0, [r0], -r0
  94:	00000080 	andeq	r0, r0, r0, lsl #1
  98:	30000040 	andcc	r0, r0, r0, asr #32

0000009c <disable_watch_dog>:
  9c:	e3a02000 	mov	r2, #0	; 0x0
  a0:	e3a03453 	mov	r3, #1392508928	; 0x53000000
  a4:	e5832000 	str	r2, [r3]
  a8:	e1a0f00e 	mov	pc, lr

000000ac <clock_init>:
  ac:	e3a0c313 	mov	ip, #1275068416	; 0x4c000000
  b0:	e3a03003 	mov	r3, #3	; 0x3
  b4:	e52de004 	str	lr, [sp, #-4]!
  b8:	e58c3014 	str	r3, [ip, #20]
  bc:	ee111f10 	mrc	15, 0, r1, cr1, cr0, {0}
  c0:	e3811103 	orr	r1, r1, #-1073741824	; 0xc0000000
  c4:	ee011f10 	mcr	15, 0, r1, cr1, cr0, {0}
  c8:	e3a0e456 	mov	lr, #1442840576	; 0x56000000
  cc:	e59e20b0 	ldr	r2, [lr, #176]
  d0:	e3a035c9 	mov	r3, #843055104	; 0x32400000
  d4:	e3a015c9 	mov	r1, #843055104	; 0x32400000
  d8:	e2833801 	add	r3, r3, #65536	; 0x10000
  dc:	e2811801 	add	r1, r1, #65536	; 0x10000
  e0:	e3a00917 	mov	r0, #376832	; 0x5c000
  e4:	e1520003 	cmp	r2, r3
  e8:	e2800040 	add	r0, r0, #64	; 0x40
  ec:	e2811002 	add	r1, r1, #2	; 0x2
  f0:	0a000005 	beq	10c <clock_init+0x60>
  f4:	e59e30b0 	ldr	r3, [lr, #176]
  f8:	e3a02917 	mov	r2, #376832	; 0x5c000
  fc:	e2822012 	add	r2, r2, #18	; 0x12
 100:	e1530001 	cmp	r3, r1
 104:	158c2004 	strne	r2, [ip, #4]
 108:	149df004 	ldrne	pc, [sp], #4
 10c:	e58c0004 	str	r0, [ip, #4]
 110:	e49df004 	ldr	pc, [sp], #4

00000114 <memsetup>:
 114:	e52de004 	str	lr, [sp, #-4]!
 118:	e3a01422 	mov	r1, #570425344	; 0x22000000
 11c:	e3a0c723 	mov	ip, #9175040	; 0x8c0000
 120:	e2811a11 	add	r1, r1, #69632	; 0x11000
 124:	e3a03312 	mov	r3, #1207959552	; 0x48000000
 128:	e3a02c07 	mov	r2, #1792	; 0x700
 12c:	e28cce4f 	add	ip, ip, #1264	; 0x4f0
 130:	e3a00906 	mov	r0, #98304	; 0x18000
 134:	e2811e11 	add	r1, r1, #272	; 0x110
 138:	e2800005 	add	r0, r0, #5	; 0x5
 13c:	e3a0e030 	mov	lr, #48	; 0x30
 140:	e5831000 	str	r1, [r3]
 144:	e28cc004 	add	ip, ip, #4	; 0x4
 148:	e5832004 	str	r2, [r3, #4]
 14c:	e5832008 	str	r2, [r3, #8]
 150:	e583200c 	str	r2, [r3, #12]
 154:	e5832010 	str	r2, [r3, #16]
 158:	e5832014 	str	r2, [r3, #20]
 15c:	e5832018 	str	r2, [r3, #24]
 160:	e3a020b1 	mov	r2, #177	; 0xb1
 164:	e583001c 	str	r0, [r3, #28]
 168:	e5830020 	str	r0, [r3, #32]
 16c:	e583c024 	str	ip, [r3, #36]
 170:	e5832028 	str	r2, [r3, #40]
 174:	e583e02c 	str	lr, [r3, #44]
 178:	e583e030 	str	lr, [r3, #48]
 17c:	e49df004 	ldr	pc, [sp], #4

00000180 <copy_steppingstone_to_sdram>:
 180:	e3a00eff 	mov	r0, #4080	; 0xff0
 184:	e280000f 	add	r0, r0, #15	; 0xf
 188:	e3a02000 	mov	r2, #0	; 0x0
 18c:	e3a01203 	mov	r1, #805306368	; 0x30000000
 190:	e4923004 	ldr	r3, [r2], #4
 194:	e1520000 	cmp	r2, r0
 198:	e4813004 	str	r3, [r1], #4
 19c:	9afffffb 	bls	190 <copy_steppingstone_to_sdram+0x10>
 1a0:	e1a0f00e 	mov	pc, lr

000001a4 <clean_bss>:
 1a4:	e59f301c 	ldr	r3, [pc, #28]	; 1c8 <.init+0x1c8>
 1a8:	e59f101c 	ldr	r1, [pc, #28]	; 1cc <.init+0x1cc>
 1ac:	e1530001 	cmp	r3, r1
 1b0:	21a0f00e 	movcs	pc, lr
 1b4:	e3a02000 	mov	r2, #0	; 0x0
 1b8:	e4832004 	str	r2, [r3], #4
 1bc:	e1530001 	cmp	r3, r1
 1c0:	3afffffc 	bcc	1b8 <clean_bss+0x14>
 1c4:	e1a0f00e 	mov	pc, lr
 1c8:	300033c0 	andcc	r3, r0, r0, asr #7
 1cc:	30003c8c 	andcc	r3, r0, ip, lsl #25

000001d0 <CopyCode2SDRAM>:
 1d0:	e52de004 	str	lr, [sp, #-4]!
 1d4:	eb0000f2 	bl	5a4 <nand_read>
 1d8:	e3a00000 	mov	r0, #0	; 0x0
 1dc:	e49df004 	ldr	pc, [sp], #4
 1e0:	43434700 	cmpmi	r3, #0	; 0x0
 1e4:	4728203a 	undefined
 1e8:	2029554e 	eorcs	r5, r9, lr, asr #10
 1ec:	2e342e33 	mrccs	14, 1, r2, cr4, cr3, {1}
 1f0:	00000035 	andeq	r0, r0, r5, lsr r0

000001f4 <s3c2410_nand_select_chip>:
 1f4:	e59f301c 	ldr	r3, [pc, #28]	; 218 <.init+0x218>
 1f8:	e5931000 	ldr	r1, [r3]
 1fc:	e5912000 	ldr	r2, [r1]
 200:	e3c22b02 	bic	r2, r2, #2048	; 0x800
 204:	e5812000 	str	r2, [r1]
 208:	e3a03009 	mov	r3, #9	; 0x9
 20c:	e2533001 	subs	r3, r3, #1	; 0x1
 210:	5afffffd 	bpl	20c <s3c2410_nand_select_chip+0x18>
 214:	e1a0f00e 	mov	pc, lr
 218:	00000660 	andeq	r0, r0, r0, ror #12

0000021c <s3c2410_write_cmd>:
 21c:	e59f3008 	ldr	r3, [pc, #8]	; 22c <.init+0x22c>
 220:	e5932000 	ldr	r2, [r3]
 224:	e5c20004 	strb	r0, [r2, #4]
 228:	e1a0f00e 	mov	pc, lr
 22c:	00000660 	andeq	r0, r0, r0, ror #12

00000230 <s3c2410_wait_idle>:
 230:	e59f302c 	ldr	r3, [pc, #44]	; 264 <.init+0x264>
 234:	e5931000 	ldr	r1, [r3]
 238:	e5d12010 	ldrb	r2, [r1, #16]
 23c:	e3120001 	tst	r2, #1	; 0x1
 240:	e2811010 	add	r1, r1, #16	; 0x10
 244:	11a0f00e 	movne	pc, lr
 248:	e3a03009 	mov	r3, #9	; 0x9
 24c:	e2533001 	subs	r3, r3, #1	; 0x1
 250:	5afffffd 	bpl	24c <s3c2410_wait_idle+0x1c>
 254:	e5d13000 	ldrb	r3, [r1]
 258:	e3130001 	tst	r3, #1	; 0x1
 25c:	0afffff9 	beq	248 <s3c2410_wait_idle+0x18>
 260:	e1a0f00e 	mov	pc, lr
 264:	00000660 	andeq	r0, r0, r0, ror #12

00000268 <s3c2410_nand_deselect_chip>:
 268:	e59f3010 	ldr	r3, [pc, #16]	; 280 <.init+0x280>
 26c:	e5931000 	ldr	r1, [r3]
 270:	e5912000 	ldr	r2, [r1]
 274:	e3822b02 	orr	r2, r2, #2048	; 0x800
 278:	e5812000 	str	r2, [r1]
 27c:	e1a0f00e 	mov	pc, lr
 280:	00000660 	andeq	r0, r0, r0, ror #12

00000284 <s3c2410_nand_reset>:
 284:	e52de004 	str	lr, [sp, #-4]!
 288:	ebffffd9 	bl	1f4 <s3c2410_nand_select_chip>
 28c:	e3a000ff 	mov	r0, #255	; 0xff
 290:	ebffffe1 	bl	21c <s3c2410_write_cmd>
 294:	ebffffe5 	bl	230 <s3c2410_wait_idle>
 298:	e49de004 	ldr	lr, [sp], #4
 29c:	eafffff1 	b	268 <s3c2410_nand_deselect_chip>

000002a0 <s3c2410_write_addr>:
 2a0:	e59f3054 	ldr	r3, [pc, #84]	; 2fc <.init+0x2fc>
 2a4:	e5932000 	ldr	r2, [r3]
 2a8:	e5c20008 	strb	r0, [r2, #8]
 2ac:	e3a03009 	mov	r3, #9	; 0x9
 2b0:	e2822008 	add	r2, r2, #8	; 0x8
 2b4:	e2533001 	subs	r3, r3, #1	; 0x1
 2b8:	5afffffd 	bpl	2b4 <s3c2410_write_addr+0x14>
 2bc:	e1a034a0 	mov	r3, r0, lsr #9
 2c0:	e5c23000 	strb	r3, [r2]
 2c4:	e3a03009 	mov	r3, #9	; 0x9
 2c8:	e2533001 	subs	r3, r3, #1	; 0x1
 2cc:	5afffffd 	bpl	2c8 <s3c2410_write_addr+0x28>
 2d0:	e1a038a0 	mov	r3, r0, lsr #17
 2d4:	e5c23000 	strb	r3, [r2]
 2d8:	e3a03009 	mov	r3, #9	; 0x9
 2dc:	e2533001 	subs	r3, r3, #1	; 0x1
 2e0:	5afffffd 	bpl	2dc <s3c2410_write_addr+0x3c>
 2e4:	e1a03ca0 	mov	r3, r0, lsr #25
 2e8:	e5c23000 	strb	r3, [r2]
 2ec:	e3a03009 	mov	r3, #9	; 0x9
 2f0:	e2533001 	subs	r3, r3, #1	; 0x1
 2f4:	5afffffd 	bpl	2f0 <s3c2410_write_addr+0x50>
 2f8:	e1a0f00e 	mov	pc, lr
 2fc:	00000660 	andeq	r0, r0, r0, ror #12

00000300 <s3c2410_read_data>:
 300:	e59f3008 	ldr	r3, [pc, #8]	; 310 <.init+0x310>
 304:	e5932000 	ldr	r2, [r3]
 308:	e5d2000c 	ldrb	r0, [r2, #12]
 30c:	e1a0f00e 	mov	pc, lr
 310:	00000660 	andeq	r0, r0, r0, ror #12

00000314 <s3c2440_nand_select_chip>:
 314:	e59f301c 	ldr	r3, [pc, #28]	; 338 <.init+0x338>
 318:	e5931000 	ldr	r1, [r3]
 31c:	e5912004 	ldr	r2, [r1, #4]
 320:	e3c22002 	bic	r2, r2, #2	; 0x2
 324:	e5812004 	str	r2, [r1, #4]
 328:	e3a03009 	mov	r3, #9	; 0x9
 32c:	e2533001 	subs	r3, r3, #1	; 0x1
 330:	5afffffd 	bpl	32c <s3c2440_nand_select_chip+0x18>
 334:	e1a0f00e 	mov	pc, lr
 338:	0000065c 	andeq	r0, r0, ip, asr r6

0000033c <s3c2440_write_cmd>:
 33c:	e59f3008 	ldr	r3, [pc, #8]	; 34c <.init+0x34c>
 340:	e5932000 	ldr	r2, [r3]
 344:	e5c20008 	strb	r0, [r2, #8]
 348:	e1a0f00e 	mov	pc, lr
 34c:	0000065c 	andeq	r0, r0, ip, asr r6

00000350 <s3c2440_wait_idle>:
 350:	e59f302c 	ldr	r3, [pc, #44]	; 384 <.init+0x384>
 354:	e5931000 	ldr	r1, [r3]
 358:	e5d12020 	ldrb	r2, [r1, #32]
 35c:	e3120001 	tst	r2, #1	; 0x1
 360:	e2811020 	add	r1, r1, #32	; 0x20
 364:	11a0f00e 	movne	pc, lr
 368:	e3a03009 	mov	r3, #9	; 0x9
 36c:	e2533001 	subs	r3, r3, #1	; 0x1
 370:	5afffffd 	bpl	36c <s3c2440_wait_idle+0x1c>
 374:	e5d13000 	ldrb	r3, [r1]
 378:	e3130001 	tst	r3, #1	; 0x1
 37c:	0afffff9 	beq	368 <s3c2440_wait_idle+0x18>
 380:	e1a0f00e 	mov	pc, lr
 384:	0000065c 	andeq	r0, r0, ip, asr r6

00000388 <s3c2440_nand_deselect_chip>:
 388:	e59f3010 	ldr	r3, [pc, #16]	; 3a0 <.init+0x3a0>
 38c:	e5931000 	ldr	r1, [r3]
 390:	e5912004 	ldr	r2, [r1, #4]
 394:	e3822002 	orr	r2, r2, #2	; 0x2
 398:	e5812004 	str	r2, [r1, #4]
 39c:	e1a0f00e 	mov	pc, lr
 3a0:	0000065c 	andeq	r0, r0, ip, asr r6

000003a4 <s3c2440_nand_reset>:
 3a4:	e52de004 	str	lr, [sp, #-4]!
 3a8:	ebffffd9 	bl	314 <s3c2440_nand_select_chip>
 3ac:	e3a000ff 	mov	r0, #255	; 0xff
 3b0:	ebffffe1 	bl	33c <s3c2440_write_cmd>
 3b4:	ebffffe5 	bl	350 <s3c2440_wait_idle>
 3b8:	e49de004 	ldr	lr, [sp], #4
 3bc:	eafffff1 	b	388 <s3c2440_nand_deselect_chip>

000003c0 <s3c2440_write_addr_lp>:
 3c0:	e59f3078 	ldr	r3, [pc, #120]	; 440 <.init+0x440>
 3c4:	e1a01a80 	mov	r1, r0, lsl #21
 3c8:	e5932000 	ldr	r2, [r3]
 3cc:	e1a01aa1 	mov	r1, r1, lsr #21
 3d0:	e3c13000 	bic	r3, r1, #0	; 0x0
 3d4:	e5c2300c 	strb	r3, [r2, #12]
 3d8:	e1a005a0 	mov	r0, r0, lsr #11
 3dc:	e282200c 	add	r2, r2, #12	; 0xc
 3e0:	e3a03009 	mov	r3, #9	; 0x9
 3e4:	e2533001 	subs	r3, r3, #1	; 0x1
 3e8:	5afffffd 	bpl	3e4 <s3c2440_write_addr_lp+0x24>
 3ec:	e1a03421 	mov	r3, r1, lsr #8
 3f0:	e5c23000 	strb	r3, [r2]
 3f4:	e3a03009 	mov	r3, #9	; 0x9
 3f8:	e2533001 	subs	r3, r3, #1	; 0x1
 3fc:	5afffffd 	bpl	3f8 <s3c2440_write_addr_lp+0x38>
 400:	e5c20000 	strb	r0, [r2]
 404:	e3a03009 	mov	r3, #9	; 0x9
 408:	e2533001 	subs	r3, r3, #1	; 0x1
 40c:	5afffffd 	bpl	408 <s3c2440_write_addr_lp+0x48>
 410:	e1a03440 	mov	r3, r0, asr #8
 414:	e5c23000 	strb	r3, [r2]
 418:	e3a03009 	mov	r3, #9	; 0x9
 41c:	e2533001 	subs	r3, r3, #1	; 0x1
 420:	5afffffd 	bpl	41c <s3c2440_write_addr_lp+0x5c>
 424:	e1a03840 	mov	r3, r0, asr #16
 428:	e2033003 	and	r3, r3, #3	; 0x3
 42c:	e5c23000 	strb	r3, [r2]
 430:	e3a03009 	mov	r3, #9	; 0x9
 434:	e2533001 	subs	r3, r3, #1	; 0x1
 438:	5afffffd 	bpl	434 <s3c2440_write_addr_lp+0x74>
 43c:	e1a0f00e 	mov	pc, lr
 440:	0000065c 	andeq	r0, r0, ip, asr r6

00000444 <s3c2440_read_data>:
 444:	e59f3008 	ldr	r3, [pc, #8]	; 454 <.init+0x454>
 448:	e5932000 	ldr	r2, [r3]
 44c:	e5d20010 	ldrb	r0, [r2, #16]
 450:	e1a0f00e 	mov	pc, lr
 454:	0000065c 	andeq	r0, r0, ip, asr r6

00000458 <write_cmd>:
 458:	e52de004 	str	lr, [sp, #-4]!
 45c:	e59f3008 	ldr	r3, [pc, #8]	; 46c <.init+0x46c>
 460:	e1a0e00f 	mov	lr, pc
 464:	e593f010 	ldr	pc, [r3, #16]
 468:	e49df004 	ldr	pc, [sp], #4
 46c:	00000664 	andeq	r0, r0, r4, ror #12

00000470 <nand_init>:
 470:	e52de004 	str	lr, [sp, #-4]!
 474:	e3a0e456 	mov	lr, #1442840576	; 0x56000000
 478:	e3a035c9 	mov	r3, #843055104	; 0x32400000
 47c:	e3a015c9 	mov	r1, #843055104	; 0x32400000
 480:	e2833801 	add	r3, r3, #65536	; 0x10000
 484:	e2811801 	add	r1, r1, #65536	; 0x10000
 488:	e3a0cb26 	mov	ip, #38912	; 0x9800
 48c:	e2811002 	add	r1, r1, #2	; 0x2
 490:	e59f00c8 	ldr	r0, [pc, #200]	; 560 <.init+0x560>
 494:	e28cc030 	add	ip, ip, #48	; 0x30
 498:	e59e20b0 	ldr	r2, [lr, #176]
 49c:	e1520003 	cmp	r2, r3
 4a0:	0a00001a 	beq	510 <nand_init+0xa0>
 4a4:	e59e30b0 	ldr	r3, [lr, #176]
 4a8:	e1530001 	cmp	r3, r1
 4ac:	0a000017 	beq	510 <nand_init+0xa0>
 4b0:	e59f30ac 	ldr	r3, [pc, #172]	; 564 <.init+0x564>
 4b4:	e5931000 	ldr	r1, [r3]
 4b8:	e59f00a0 	ldr	r0, [pc, #160]	; 560 <.init+0x560>
 4bc:	e3a03013 	mov	r3, #19	; 0x13
 4c0:	e59f20a0 	ldr	r2, [pc, #160]	; 568 <.init+0x568>
 4c4:	e5813004 	str	r3, [r1, #4]
 4c8:	e59f309c 	ldr	r3, [pc, #156]	; 56c <.init+0x56c>
 4cc:	e5802000 	str	r2, [r0]
 4d0:	e59f2098 	ldr	r2, [pc, #152]	; 570 <.init+0x570>
 4d4:	e5803004 	str	r3, [r0, #4]
 4d8:	e59f3094 	ldr	r3, [pc, #148]	; 574 <.init+0x574>
 4dc:	e5802008 	str	r2, [r0, #8]
 4e0:	e59f2090 	ldr	r2, [pc, #144]	; 578 <.init+0x578>
 4e4:	e580300c 	str	r3, [r0, #12]
 4e8:	e59f308c 	ldr	r3, [pc, #140]	; 57c <.init+0x57c>
 4ec:	e5802010 	str	r2, [r0, #16]
 4f0:	e59f2088 	ldr	r2, [pc, #136]	; 580 <.init+0x580>
 4f4:	e5803014 	str	r3, [r0, #20]
 4f8:	e3a03c03 	mov	r3, #768	; 0x300
 4fc:	e5802018 	str	r2, [r0, #24]
 500:	e5813000 	str	r3, [r1]
 504:	e1a0e00f 	mov	lr, pc
 508:	e590f000 	ldr	pc, [r0]
 50c:	e49df004 	ldr	pc, [sp], #4
 510:	e59f306c 	ldr	r3, [pc, #108]	; 584 <.init+0x584>
 514:	e5932000 	ldr	r2, [r3]
 518:	e59f3068 	ldr	r3, [pc, #104]	; 588 <.init+0x588>
 51c:	e582c000 	str	ip, [r2]
 520:	e59f2064 	ldr	r2, [pc, #100]	; 58c <.init+0x58c>
 524:	e5803000 	str	r3, [r0]
 528:	e59f3060 	ldr	r3, [pc, #96]	; 590 <.init+0x590>
 52c:	e5802004 	str	r2, [r0, #4]
 530:	e59f205c 	ldr	r2, [pc, #92]	; 594 <.init+0x594>
 534:	e5803008 	str	r3, [r0, #8]
 538:	e59f3058 	ldr	r3, [pc, #88]	; 598 <.init+0x598>
 53c:	e580200c 	str	r2, [r0, #12]
 540:	e59f2054 	ldr	r2, [pc, #84]	; 59c <.init+0x59c>
 544:	e5803010 	str	r3, [r0, #16]
 548:	e59f3050 	ldr	r3, [pc, #80]	; 5a0 <.init+0x5a0>
 54c:	e5802014 	str	r2, [r0, #20]
 550:	e5803018 	str	r3, [r0, #24]
 554:	e1a0e00f 	mov	lr, pc
 558:	e590f000 	ldr	pc, [r0]
 55c:	e49df004 	ldr	pc, [sp], #4
 560:	00000664 	andeq	r0, r0, r4, ror #12
 564:	0000065c 	andeq	r0, r0, ip, asr r6
 568:	000003a4 	andeq	r0, r0, r4, lsr #7
 56c:	00000350 	andeq	r0, r0, r0, asr r3
 570:	00000314 	andeq	r0, r0, r4, lsl r3
 574:	00000388 	andeq	r0, r0, r8, lsl #7
 578:	0000033c 	andeq	r0, r0, ip, lsr r3
 57c:	000003c0 	andeq	r0, r0, r0, asr #7
 580:	00000444 	andeq	r0, r0, r4, asr #8
 584:	00000660 	andeq	r0, r0, r0, ror #12
 588:	00000284 	andeq	r0, r0, r4, lsl #5
 58c:	00000230 	andeq	r0, r0, r0, lsr r2
 590:	000001f4 	streqd	r0, [r0], -r4
 594:	00000268 	andeq	r0, r0, r8, ror #4
 598:	0000021c 	andeq	r0, r0, ip, lsl r2
 59c:	000002a0 	andeq	r0, r0, r0, lsr #5
 5a0:	00000300 	andeq	r0, r0, r0, lsl #6

000005a4 <nand_read>:
 5a4:	e1a03a81 	mov	r3, r1, lsl #21
 5a8:	e1a03aa3 	mov	r3, r3, lsr #21
 5ac:	e3530000 	cmp	r3, #0	; 0x0
 5b0:	e92d45f0 	stmdb	sp!, {r4, r5, r6, r7, r8, sl, lr}
 5b4:	e1a05001 	mov	r5, r1
 5b8:	e1a06000 	mov	r6, r0
 5bc:	e1a04002 	mov	r4, r2
 5c0:	18bd85f0 	ldmneia	sp!, {r4, r5, r6, r7, r8, sl, pc}
 5c4:	e1a03a82 	mov	r3, r2, lsl #21
 5c8:	e1a03aa3 	mov	r3, r3, lsr #21
 5cc:	e3530000 	cmp	r3, #0	; 0x0
 5d0:	18bd85f0 	ldmneia	sp!, {r4, r5, r6, r7, r8, sl, pc}
 5d4:	e59f807c 	ldr	r8, [pc, #124]	; 658 <.init+0x658>
 5d8:	e1a0e00f 	mov	lr, pc
 5dc:	e598f008 	ldr	pc, [r8, #8]
 5e0:	e3a03009 	mov	r3, #9	; 0x9
 5e4:	e2533001 	subs	r3, r3, #1	; 0x1
 5e8:	5afffffd 	bpl	5e4 <nand_read+0x40>
 5ec:	e085a004 	add	sl, r5, r4
 5f0:	e155000a 	cmp	r5, sl
 5f4:	2a000014 	bcs	64c <nand_read+0xa8>
 5f8:	e3a07e7f 	mov	r7, #2032	; 0x7f0
 5fc:	e287700f 	add	r7, r7, #15	; 0xf
 600:	e3a00000 	mov	r0, #0	; 0x0
 604:	ebffff93 	bl	458 <write_cmd>
 608:	e1a00005 	mov	r0, r5
 60c:	e1a0e00f 	mov	lr, pc
 610:	e598f014 	ldr	pc, [r8, #20]
 614:	e3a00030 	mov	r0, #48	; 0x30
 618:	ebffff8e 	bl	458 <write_cmd>
 61c:	e1a0e00f 	mov	lr, pc
 620:	e598f004 	ldr	pc, [r8, #4]
 624:	e3a04000 	mov	r4, #0	; 0x0
 628:	e1a0e00f 	mov	lr, pc
 62c:	e598f018 	ldr	pc, [r8, #24]
 630:	e2844001 	add	r4, r4, #1	; 0x1
 634:	e1540007 	cmp	r4, r7
 638:	e4c60001 	strb	r0, [r6], #1
 63c:	e2855001 	add	r5, r5, #1	; 0x1
 640:	dafffff8 	ble	628 <nand_read+0x84>
 644:	e155000a 	cmp	r5, sl
 648:	3affffec 	bcc	600 <nand_read+0x5c>
 64c:	e1a0e00f 	mov	lr, pc
 650:	e598f00c 	ldr	pc, [r8, #12]
 654:	e8bd85f0 	ldmia	sp!, {r4, r5, r6, r7, r8, sl, pc}
 658:	00000664 	andeq	r0, r0, r4, ror #12

0000065c <s3c2440nand>:
 65c:	4e000000 	cdpmi	0, 0, cr0, cr0, cr0, {0}

00000660 <s3c2410nand>:
 660:	4e000000 	cdpmi	0, 0, cr0, cr0, cr0, {0}

00000664 <nand_chip>:
	...
 680:	43434700 	cmpmi	r3, #0	; 0x0
 684:	4728203a 	undefined
 688:	2029554e 	eorcs	r5, r9, lr, asr #10
 68c:	2e342e33 	mrccs	14, 1, r2, cr4, cr3, {1}
 690:	00000035 	andeq	r0, r0, r5, lsr r0
Disassembly of section .text:

30000000 <Dummy_isr>:
30000000:	eafffffe 	b	30000000 <Dummy_isr>

30000004 <init_irq>:
30000004:	e59f102c 	ldr	r1, [pc, #44]	; 30000038 <.text+0x38>
30000008:	e59f202c 	ldr	r2, [pc, #44]	; 3000003c <.text+0x3c>
3000000c:	e3a03000 	mov	r3, #0	; 0x0
30000010:	e7812103 	str	r2, [r1, r3, lsl #2]
30000014:	e2833001 	add	r3, r3, #1	; 0x1
30000018:	e3530031 	cmp	r3, #49	; 0x31
3000001c:	9afffffb 	bls	30000010 <init_irq+0xc>
30000020:	e3a0344a 	mov	r3, #1241513984	; 0x4a000000
30000024:	e3a02000 	mov	r2, #0	; 0x0
30000028:	e3e01000 	mvn	r1, #0	; 0x0
3000002c:	e5832004 	str	r2, [r3, #4]
30000030:	e5831008 	str	r1, [r3, #8]
30000034:	e1a0f00e 	mov	pc, lr
30000038:	30003bc0 	andcc	r3, r0, r0, asr #23
3000003c:	30000000 	andcc	r0, r0, r0

30000040 <IRQ_Handle>:
30000040:	e52de004 	str	lr, [sp, #-4]!
30000044:	e3a0044a 	mov	r0, #1241513984	; 0x4a000000
30000048:	e3a03001 	mov	r3, #1	; 0x1
3000004c:	e5901014 	ldr	r1, [r0, #20]
30000050:	e3510004 	cmp	r1, #4	; 0x4
30000054:	e1a0c113 	mov	ip, r3, lsl r1
30000058:	03a02080 	moveq	r2, #128	; 0x80
3000005c:	03a03456 	moveq	r3, #1442840576	; 0x56000000
30000060:	058320a8 	streq	r2, [r3, #168]
30000064:	e59f2014 	ldr	r2, [pc, #20]	; 30000080 <.text+0x80>
30000068:	e580c000 	str	ip, [r0]
3000006c:	e5903010 	ldr	r3, [r0, #16]
30000070:	e5803010 	str	r3, [r0, #16]
30000074:	e1a0e00f 	mov	lr, pc
30000078:	e792f101 	ldr	pc, [r2, r1, lsl #2]
3000007c:	e49df004 	ldr	pc, [sp], #4
30000080:	30003bc0 	andcc	r3, r0, r0, asr #23

30000084 <ReadAdc>:
30000084:	e1a00180 	mov	r0, r0, lsl #3
30000088:	e3800b13 	orr	r0, r0, #19456	; 0x4c00
3000008c:	e3a01316 	mov	r1, #1476395008	; 0x58000000
30000090:	e3800040 	orr	r0, r0, #64	; 0x40
30000094:	e5810000 	str	r0, [r1]
30000098:	e1a00001 	mov	r0, r1
3000009c:	e5913004 	ldr	r3, [r1, #4]
300000a0:	e3c33004 	bic	r3, r3, #4	; 0x4
300000a4:	e5813004 	str	r3, [r1, #4]
300000a8:	e5912000 	ldr	r2, [r1]
300000ac:	e3822001 	orr	r2, r2, #1	; 0x1
300000b0:	e5812000 	str	r2, [r1]
300000b4:	e5903000 	ldr	r3, [r0]
300000b8:	e3130902 	tst	r3, #32768	; 0x8000
300000bc:	0afffffc 	beq	300000b4 <ReadAdc+0x30>
300000c0:	e590000c 	ldr	r0, [r0, #12]
300000c4:	e1a00b00 	mov	r0, r0, lsl #22
300000c8:	e1a00b20 	mov	r0, r0, lsr #22
300000cc:	e1a0f00e 	mov	pc, lr

300000d0 <Test_Adc>:
300000d0:	e92d40f0 	stmdb	sp!, {r4, r5, r6, r7, lr}
300000d4:	e59f0108 	ldr	r0, [pc, #264]	; 300001e4 <.text+0x1e4>
300000d8:	e24dd004 	sub	sp, sp, #4	; 0x4
300000dc:	eb000114 	bl	30000534 <printf>
300000e0:	ea000033 	b	300001b4 <Test_Adc+0xe4>
300000e4:	ebffffe6 	bl	30000084 <ReadAdc>
300000e8:	eb000b07 	bl	30002d0c <__floatsisf>
300000ec:	eb0008e2 	bl	3000247c <__extendsfdf2>
300000f0:	e28f20dc 	add	r2, pc, #220	; 0xdc
300000f4:	e892000c 	ldmia	r2, {r2, r3}
300000f8:	eb0008f2 	bl	300024c8 <__muldf3>
300000fc:	e28f20d8 	add	r2, pc, #216	; 0xd8
30000100:	e892000c 	ldmia	r2, {r2, r3}
30000104:	eb0008ef 	bl	300024c8 <__muldf3>
30000108:	eb000a4e 	bl	30002a48 <__truncdfsf2>
3000010c:	e1a04000 	mov	r4, r0
30000110:	e3a00001 	mov	r0, #1	; 0x1
30000114:	ebffffda 	bl	30000084 <ReadAdc>
30000118:	eb000afb 	bl	30002d0c <__floatsisf>
3000011c:	eb0008d6 	bl	3000247c <__extendsfdf2>
30000120:	e28f20ac 	add	r2, pc, #172	; 0xac
30000124:	e892000c 	ldmia	r2, {r2, r3}
30000128:	eb0008e6 	bl	300024c8 <__muldf3>
3000012c:	e28f20a8 	add	r2, pc, #168	; 0xa8
30000130:	e892000c 	ldmia	r2, {r2, r3}
30000134:	eb0008e3 	bl	300024c8 <__muldf3>
30000138:	eb000a42 	bl	30002a48 <__truncdfsf2>
3000013c:	e1a05000 	mov	r5, r0
30000140:	e1a00004 	mov	r0, r4
30000144:	eb000bda 	bl	300030b4 <__fixsfsi>
30000148:	e1a07000 	mov	r7, r0
3000014c:	eb000aee 	bl	30002d0c <__floatsisf>
30000150:	e1a01000 	mov	r1, r0
30000154:	e1a00004 	mov	r0, r4
30000158:	eb000a78 	bl	30002b40 <__subsf3>
3000015c:	e3a01311 	mov	r1, #1140850688	; 0x44000000
30000160:	e281187a 	add	r1, r1, #7995392	; 0x7a0000
30000164:	eb000afb 	bl	30002d58 <__mulsf3>
30000168:	eb000bd1 	bl	300030b4 <__fixsfsi>
3000016c:	e1a06000 	mov	r6, r0
30000170:	e1a00005 	mov	r0, r5
30000174:	eb000bce 	bl	300030b4 <__fixsfsi>
30000178:	e1a04000 	mov	r4, r0
3000017c:	eb000ae2 	bl	30002d0c <__floatsisf>
30000180:	e1a01000 	mov	r1, r0
30000184:	e1a00005 	mov	r0, r5
30000188:	eb000a6c 	bl	30002b40 <__subsf3>
3000018c:	e3a01311 	mov	r1, #1140850688	; 0x44000000
30000190:	e281187a 	add	r1, r1, #7995392	; 0x7a0000
30000194:	eb000aef 	bl	30002d58 <__mulsf3>
30000198:	eb000bc5 	bl	300030b4 <__fixsfsi>
3000019c:	e1a01007 	mov	r1, r7
300001a0:	e58d0000 	str	r0, [sp]
300001a4:	e1a02006 	mov	r2, r6
300001a8:	e1a03004 	mov	r3, r4
300001ac:	e59f0034 	ldr	r0, [pc, #52]	; 300001e8 <.text+0x1e8>
300001b0:	eb0000df 	bl	30000534 <printf>
300001b4:	e3a00000 	mov	r0, #0	; 0x0
300001b8:	eb00009d 	bl	30000434 <awaitkey>
300001bc:	e21000ff 	ands	r0, r0, #255	; 0xff
300001c0:	0affffc7 	beq	300000e4 <Test_Adc+0x14>
300001c4:	e3a0000a 	mov	r0, #10	; 0xa
300001c8:	e28dd004 	add	sp, sp, #4	; 0x4
300001cc:	e8bd40f0 	ldmia	sp!, {r4, r5, r6, r7, lr}
300001d0:	ea000114 	b	30000628 <putchar>
300001d4:	400a6666 	andmi	r6, sl, r6, ror #12
300001d8:	66666666 	strvsbt	r6, [r6], -r6, ror #12
300001dc:	3f500000 	swicc	0x00500000
300001e0:	00000000 	andeq	r0, r0, r0
300001e4:	3000311c 	andcc	r3, r0, ip, lsl r1
300001e8:	3000315c 	andcc	r3, r0, ip, asr r1

300001ec <AdcTsIntHandle>:
300001ec:	e92d4010 	stmdb	sp!, {r4, lr}
300001f0:	e3a0344a 	mov	r3, #1241513984	; 0x4a000000
300001f4:	e5932018 	ldr	r2, [r3, #24]
300001f8:	e3120c02 	tst	r2, #512	; 0x200
300001fc:	0a000014 	beq	30000254 <AdcTsIntHandle+0x68>
30000200:	e3a04316 	mov	r4, #1476395008	; 0x58000000
30000204:	e594300c 	ldr	r3, [r4, #12]
30000208:	e3130902 	tst	r3, #32768	; 0x8000
3000020c:	1a000037 	bne	300002f0 <AdcTsIntHandle+0x104>
30000210:	e59f00f4 	ldr	r0, [pc, #244]	; 3000030c <.text+0x30c>
30000214:	eb0000c6 	bl	30000534 <printf>
30000218:	e3a0200c 	mov	r2, #12	; 0xc
3000021c:	e5842004 	str	r2, [r4, #4]
30000220:	e5943000 	ldr	r3, [r4]
30000224:	e3833001 	orr	r3, r3, #1	; 0x1
30000228:	e5843000 	str	r3, [r4]
3000022c:	e3a0144a 	mov	r1, #1241513984	; 0x4a000000
30000230:	e5913018 	ldr	r3, [r1, #24]
30000234:	e3833c02 	orr	r3, r3, #512	; 0x200
30000238:	e5813018 	str	r3, [r1, #24]
3000023c:	e5912000 	ldr	r2, [r1]
30000240:	e3822102 	orr	r2, r2, #-2147483648	; 0x80000000
30000244:	e5812000 	str	r2, [r1]
30000248:	e5913010 	ldr	r3, [r1, #16]
3000024c:	e3833102 	orr	r3, r3, #-2147483648	; 0x80000000
30000250:	e5813010 	str	r3, [r1, #16]
30000254:	e3a0344a 	mov	r3, #1241513984	; 0x4a000000
30000258:	e5932018 	ldr	r2, [r3, #24]
3000025c:	e3120b01 	tst	r2, #1024	; 0x400
30000260:	08bd8010 	ldmeqia	sp!, {r4, pc}
30000264:	e3a04316 	mov	r4, #1476395008	; 0x58000000
30000268:	e594100c 	ldr	r1, [r4, #12]
3000026c:	e5942010 	ldr	r2, [r4, #16]
30000270:	e1a01b01 	mov	r1, r1, lsl #22
30000274:	e1a02b02 	mov	r2, r2, lsl #22
30000278:	e1a01b21 	mov	r1, r1, lsr #22
3000027c:	e1a02b22 	mov	r2, r2, lsr #22
30000280:	e59f0088 	ldr	r0, [pc, #136]	; 30000310 <.text+0x310>
30000284:	eb0000aa 	bl	30000534 <printf>
30000288:	e3a01456 	mov	r1, #1442840576	; 0x56000000
3000028c:	e59120b0 	ldr	r2, [r1, #176]
30000290:	e3a035c9 	mov	r3, #843055104	; 0x32400000
30000294:	e2833801 	add	r3, r3, #65536	; 0x10000
30000298:	e1520003 	cmp	r2, r3
3000029c:	0a000018 	beq	30000304 <AdcTsIntHandle+0x118>
300002a0:	e2433801 	sub	r3, r3, #65536	; 0x10000
300002a4:	e59120b0 	ldr	r2, [r1, #176]
300002a8:	e2833801 	add	r3, r3, #65536	; 0x10000
300002ac:	e2833002 	add	r3, r3, #2	; 0x2
300002b0:	e1520003 	cmp	r2, r3
300002b4:	13a03e1d 	movne	r3, #464	; 0x1d0
300002b8:	12833003 	addne	r3, r3, #3	; 0x3
300002bc:	0a000010 	beq	30000304 <AdcTsIntHandle+0x118>
300002c0:	e5843004 	str	r3, [r4, #4]
300002c4:	e3a0144a 	mov	r1, #1241513984	; 0x4a000000
300002c8:	e5913018 	ldr	r3, [r1, #24]
300002cc:	e3833b01 	orr	r3, r3, #1024	; 0x400
300002d0:	e5813018 	str	r3, [r1, #24]
300002d4:	e5912000 	ldr	r2, [r1]
300002d8:	e3822102 	orr	r2, r2, #-2147483648	; 0x80000000
300002dc:	e5812000 	str	r2, [r1]
300002e0:	e5913010 	ldr	r3, [r1, #16]
300002e4:	e3833102 	orr	r3, r3, #-2147483648	; 0x80000000
300002e8:	e5813010 	str	r3, [r1, #16]
300002ec:	e8bd8010 	ldmia	sp!, {r4, pc}
300002f0:	e59f001c 	ldr	r0, [pc, #28]	; 30000314 <.text+0x314>
300002f4:	eb00008e 	bl	30000534 <printf>
300002f8:	e3a030d3 	mov	r3, #211	; 0xd3
300002fc:	e5843004 	str	r3, [r4, #4]
30000300:	eaffffc9 	b	3000022c <AdcTsIntHandle+0x40>
30000304:	e3a030d3 	mov	r3, #211	; 0xd3
30000308:	eaffffec 	b	300002c0 <AdcTsIntHandle+0xd4>
3000030c:	30003180 	andcc	r3, r0, r0, lsl #3
30000310:	30003190 	mulcc	r0, r0, r1
30000314:	300031ac 	andcc	r3, r0, ip, lsr #3

30000318 <Test_Ts>:
30000318:	e92d4030 	stmdb	sp!, {r4, r5, lr}
3000031c:	e3a0444a 	mov	r4, #1241513984	; 0x4a000000
30000320:	e59f1080 	ldr	r1, [pc, #128]	; 300003a8 <.text+0x3a8>
30000324:	e3a0eb13 	mov	lr, #19456	; 0x4c00
30000328:	e3a05cc3 	mov	r5, #49920	; 0xc300
3000032c:	e3a0c316 	mov	ip, #1476395008	; 0x58000000
30000330:	e28ee040 	add	lr, lr, #64	; 0x40
30000334:	e2855050 	add	r5, r5, #80	; 0x50
30000338:	e59f006c 	ldr	r0, [pc, #108]	; 300003ac <.text+0x3ac>
3000033c:	e5943008 	ldr	r3, [r4, #8]
30000340:	e3c33102 	bic	r3, r3, #-2147483648	; 0x80000000
30000344:	e5843008 	str	r3, [r4, #8]
30000348:	e59f3060 	ldr	r3, [pc, #96]	; 300003b0 <.text+0x3b0>
3000034c:	e594201c 	ldr	r2, [r4, #28]
30000350:	e3c22c02 	bic	r2, r2, #512	; 0x200
30000354:	e584201c 	str	r2, [r4, #28]
30000358:	e594201c 	ldr	r2, [r4, #28]
3000035c:	e583107c 	str	r1, [r3, #124]
30000360:	e3c22b01 	bic	r2, r2, #1024	; 0x400
30000364:	e3a030d3 	mov	r3, #211	; 0xd3
30000368:	e584201c 	str	r2, [r4, #28]
3000036c:	e58ce000 	str	lr, [ip]
30000370:	e58c5008 	str	r5, [ip, #8]
30000374:	e58c3004 	str	r3, [ip, #4]
30000378:	eb00006d 	bl	30000534 <printf>
3000037c:	eb000026 	bl	3000041c <getc>
30000380:	e594301c 	ldr	r3, [r4, #28]
30000384:	e3833c02 	orr	r3, r3, #512	; 0x200
30000388:	e584301c 	str	r3, [r4, #28]
3000038c:	e594201c 	ldr	r2, [r4, #28]
30000390:	e3822b01 	orr	r2, r2, #1024	; 0x400
30000394:	e584201c 	str	r2, [r4, #28]
30000398:	e5943008 	ldr	r3, [r4, #8]
3000039c:	e3833102 	orr	r3, r3, #-2147483648	; 0x80000000
300003a0:	e5843008 	str	r3, [r4, #8]
300003a4:	e8bd8030 	ldmia	sp!, {r4, r5, pc}
300003a8:	300001ec 	andcc	r0, r0, ip, ror #3
300003ac:	300031bc 	strcch	r3, [r0], -ip
300003b0:	30003bc0 	andcc	r3, r0, r0, asr #23

300003b4 <uart0_init>:
300003b4:	e3a01456 	mov	r1, #1442840576	; 0x56000000
300003b8:	e5913070 	ldr	r3, [r1, #112]
300003bc:	e38330a0 	orr	r3, r3, #160	; 0xa0
300003c0:	e5813070 	str	r3, [r1, #112]
300003c4:	e3a0c205 	mov	ip, #1342177280	; 0x50000000
300003c8:	e3a0200c 	mov	r2, #12	; 0xc
300003cc:	e3a03003 	mov	r3, #3	; 0x3
300003d0:	e3a00000 	mov	r0, #0	; 0x0
300003d4:	e5812078 	str	r2, [r1, #120]
300003d8:	e242224b 	sub	r2, r2, #-1342177276	; 0xb0000004
300003dc:	e3a01005 	mov	r1, #5	; 0x5
300003e0:	e58c3000 	str	r3, [ip]
300003e4:	e2833215 	add	r3, r3, #1342177281	; 0x50000001
300003e8:	e4831008 	str	r1, [r3], #8
300003ec:	e5820000 	str	r0, [r2]
300003f0:	e3a0201a 	mov	r2, #26	; 0x1a
300003f4:	e5830000 	str	r0, [r3]
300003f8:	e58c2028 	str	r2, [ip, #40]
300003fc:	e1a0f00e 	mov	pc, lr

30000400 <putc>:
30000400:	e20000ff 	and	r0, r0, #255	; 0xff
30000404:	e3a02205 	mov	r2, #1342177280	; 0x50000000
30000408:	e5923010 	ldr	r3, [r2, #16]
3000040c:	e3130004 	tst	r3, #4	; 0x4
30000410:	0afffffc 	beq	30000408 <putc+0x8>
30000414:	e5c20020 	strb	r0, [r2, #32]
30000418:	e1a0f00e 	mov	pc, lr

3000041c <getc>:
3000041c:	e3a02205 	mov	r2, #1342177280	; 0x50000000
30000420:	e5923010 	ldr	r3, [r2, #16]
30000424:	e3130001 	tst	r3, #1	; 0x1
30000428:	0afffffc 	beq	30000420 <getc+0x4>
3000042c:	e5d20024 	ldrb	r0, [r2, #36]
30000430:	e1a0f00e 	mov	pc, lr

30000434 <awaitkey>:
30000434:	e3a02205 	mov	r2, #1342177280	; 0x50000000
30000438:	e5923010 	ldr	r3, [r2, #16]
3000043c:	e3130001 	tst	r3, #1	; 0x1
30000440:	1a000005 	bne	3000045c <awaitkey+0x28>
30000444:	e3500000 	cmp	r0, #0	; 0x0
30000448:	01a0f00e 	moveq	pc, lr
3000044c:	e5923010 	ldr	r3, [r2, #16]
30000450:	e2400001 	sub	r0, r0, #1	; 0x1
30000454:	e3130001 	tst	r3, #1	; 0x1
30000458:	0afffff9 	beq	30000444 <awaitkey+0x10>
3000045c:	e3a03205 	mov	r3, #1342177280	; 0x50000000
30000460:	e5d32024 	ldrb	r2, [r3, #36]
30000464:	e20200ff 	and	r0, r2, #255	; 0xff
30000468:	e1a0f00e 	mov	pc, lr

3000046c <isDigit>:
3000046c:	e2400030 	sub	r0, r0, #48	; 0x30
30000470:	e20000ff 	and	r0, r0, #255	; 0xff
30000474:	e3500009 	cmp	r0, #9	; 0x9
30000478:	83a00000 	movhi	r0, #0	; 0x0
3000047c:	93a00001 	movls	r0, #1	; 0x1
30000480:	e1a0f00e 	mov	pc, lr

30000484 <isLetter>:
30000484:	e20000ff 	and	r0, r0, #255	; 0xff
30000488:	e2403061 	sub	r3, r0, #97	; 0x61
3000048c:	e3530019 	cmp	r3, #25	; 0x19
30000490:	e2400041 	sub	r0, r0, #65	; 0x41
30000494:	e3a03001 	mov	r3, #1	; 0x1
30000498:	9a000002 	bls	300004a8 <isLetter+0x24>
3000049c:	e3500019 	cmp	r0, #25	; 0x19
300004a0:	83a03000 	movhi	r3, #0	; 0x0
300004a4:	93a03001 	movls	r3, #1	; 0x1
300004a8:	e1a00003 	mov	r0, r3
300004ac:	e1a0f00e 	mov	pc, lr

300004b0 <main>:
300004b0:	e92d4010 	stmdb	sp!, {r4, lr}
300004b4:	ebffffbe 	bl	300003b4 <uart0_init>
300004b8:	e59f0060 	ldr	r0, [pc, #96]	; 30000520 <.text+0x520>
300004bc:	eb000048 	bl	300005e4 <puts>
300004c0:	e59f005c 	ldr	r0, [pc, #92]	; 30000524 <.text+0x524>
300004c4:	eb00001a 	bl	30000534 <printf>
300004c8:	e59f0058 	ldr	r0, [pc, #88]	; 30000528 <.text+0x528>
300004cc:	eb000018 	bl	30000534 <printf>
300004d0:	e59f0054 	ldr	r0, [pc, #84]	; 3000052c <.text+0x52c>
300004d4:	eb000016 	bl	30000534 <printf>
300004d8:	ebffffcf 	bl	3000041c <getc>
300004dc:	e20040ff 	and	r4, r0, #255	; 0xff
300004e0:	e1a01004 	mov	r1, r4
300004e4:	e59f0044 	ldr	r0, [pc, #68]	; 30000530 <.text+0x530>
300004e8:	eb000011 	bl	30000534 <printf>
300004ec:	e3540054 	cmp	r4, #84	; 0x54
300004f0:	0a000008 	beq	30000518 <main+0x68>
300004f4:	ca000003 	bgt	30000508 <main+0x58>
300004f8:	e3540041 	cmp	r4, #65	; 0x41
300004fc:	1affffed 	bne	300004b8 <main+0x8>
30000500:	ebfffef2 	bl	300000d0 <Test_Adc>
30000504:	eaffffeb 	b	300004b8 <main+0x8>
30000508:	e3540061 	cmp	r4, #97	; 0x61
3000050c:	0afffffb 	beq	30000500 <main+0x50>
30000510:	e3540074 	cmp	r4, #116	; 0x74
30000514:	1affffe7 	bne	300004b8 <main+0x8>
30000518:	ebffff7e 	bl	30000318 <Test_Ts>
3000051c:	eaffffe5 	b	300004b8 <main+0x8>
30000520:	300031f0 	strccd	r3, [r0], -r0
30000524:	3000321c 	andcc	r3, r0, ip, lsl r2
30000528:	3000322c 	andcc	r3, r0, ip, lsr #4
3000052c:	30003244 	andcc	r3, r0, r4, asr #4
30000530:	3000325c 	andcc	r3, r0, ip, asr r2

30000534 <printf>:
30000534:	e92d000f 	stmdb	sp!, {r0, r1, r2, r3}
30000538:	e59f0048 	ldr	r0, [pc, #72]	; 30000588 <.text+0x588>
3000053c:	e92d4070 	stmdb	sp!, {r4, r5, r6, lr}
30000540:	e59d1010 	ldr	r1, [sp, #16]
30000544:	e3a04000 	mov	r4, #0	; 0x0
30000548:	e59f5038 	ldr	r5, [pc, #56]	; 30000588 <.text+0x588>
3000054c:	e28d2014 	add	r2, sp, #20	; 0x14
30000550:	eb0004c3 	bl	30001864 <vsprintf>
30000554:	e1a06000 	mov	r6, r0
30000558:	ea000002 	b	30000568 <printf+0x34>
3000055c:	e7d50004 	ldrb	r0, [r5, r4]
30000560:	ebffffa6 	bl	30000400 <putc>
30000564:	e2844001 	add	r4, r4, #1	; 0x1
30000568:	e59f0018 	ldr	r0, [pc, #24]	; 30000588 <.text+0x588>
3000056c:	eb0000ae 	bl	3000082c <strlen>
30000570:	e1540000 	cmp	r4, r0
30000574:	3afffff8 	bcc	3000055c <printf+0x28>
30000578:	e1a00006 	mov	r0, r6
3000057c:	e8bd4070 	ldmia	sp!, {r4, r5, r6, lr}
30000580:	e28dd010 	add	sp, sp, #16	; 0x10
30000584:	e1a0f00e 	mov	pc, lr
30000588:	300033c0 	andcc	r3, r0, r0, asr #7

3000058c <scanf>:
3000058c:	e92d000f 	stmdb	sp!, {r0, r1, r2, r3}
30000590:	e92d4030 	stmdb	sp!, {r4, r5, lr}
30000594:	e59f5044 	ldr	r5, [pc, #68]	; 300005e0 <.text+0x5e0>
30000598:	e3a04000 	mov	r4, #0	; 0x0
3000059c:	ea000001 	b	300005a8 <scanf+0x1c>
300005a0:	e7c40005 	strb	r0, [r4, r5]
300005a4:	e2844001 	add	r4, r4, #1	; 0x1
300005a8:	ebffff9b 	bl	3000041c <getc>
300005ac:	e20000ff 	and	r0, r0, #255	; 0xff
300005b0:	e350000a 	cmp	r0, #10	; 0xa
300005b4:	1350000d 	cmpne	r0, #13	; 0xd
300005b8:	1afffff8 	bne	300005a0 <scanf+0x14>
300005bc:	e3a03000 	mov	r3, #0	; 0x0
300005c0:	e59d100c 	ldr	r1, [sp, #12]
300005c4:	e28d2010 	add	r2, sp, #16	; 0x10
300005c8:	e59f0010 	ldr	r0, [pc, #16]	; 300005e0 <.text+0x5e0>
300005cc:	e7c53004 	strb	r3, [r5, r4]
300005d0:	eb0004af 	bl	30001894 <vsscanf>
300005d4:	e8bd4030 	ldmia	sp!, {r4, r5, lr}
300005d8:	e28dd010 	add	sp, sp, #16	; 0x10
300005dc:	e1a0f00e 	mov	pc, lr
300005e0:	300037c0 	andcc	r3, r0, r0, asr #15

300005e4 <puts>:
300005e4:	e92d4030 	stmdb	sp!, {r4, r5, lr}
300005e8:	e1a04000 	mov	r4, r0
300005ec:	e3a05000 	mov	r5, #0	; 0x0
300005f0:	e5d00000 	ldrb	r0, [r0]
300005f4:	e3500000 	cmp	r0, #0	; 0x0
300005f8:	0a000004 	beq	30000610 <puts+0x2c>
300005fc:	ebffff7f 	bl	30000400 <putc>
30000600:	e5f40001 	ldrb	r0, [r4, #1]!
30000604:	e2855001 	add	r5, r5, #1	; 0x1
30000608:	e3500000 	cmp	r0, #0	; 0x0
3000060c:	1afffffa 	bne	300005fc <puts+0x18>
30000610:	e3a0000a 	mov	r0, #10	; 0xa
30000614:	ebffff79 	bl	30000400 <putc>
30000618:	e3a0000d 	mov	r0, #13	; 0xd
3000061c:	ebffff77 	bl	30000400 <putc>
30000620:	e2850002 	add	r0, r5, #2	; 0x2
30000624:	e8bd8030 	ldmia	sp!, {r4, r5, pc}

30000628 <putchar>:
30000628:	e92d4010 	stmdb	sp!, {r4, lr}
3000062c:	e1a04000 	mov	r4, r0
30000630:	e20000ff 	and	r0, r0, #255	; 0xff
30000634:	ebffff71 	bl	30000400 <putc>
30000638:	e1a00004 	mov	r0, r4
3000063c:	e8bd8010 	ldmia	sp!, {r4, pc}

30000640 <strnicmp>:
30000640:	e92d41f0 	stmdb	sp!, {r4, r5, r6, r7, r8, lr}
30000644:	e3520000 	cmp	r2, #0	; 0x0
30000648:	e3a0e000 	mov	lr, #0	; 0x0
3000064c:	e1a07000 	mov	r7, r0
30000650:	e1a06001 	mov	r6, r1
30000654:	e1a0c00e 	mov	ip, lr
30000658:	0a000018 	beq	300006c0 <strnicmp+0x80>
3000065c:	e4d7e001 	ldrb	lr, [r7], #1
30000660:	e35e0000 	cmp	lr, #0	; 0x0
30000664:	e59f805c 	ldr	r8, [pc, #92]	; 300006c8 <.text+0x6c8>
30000668:	e4d6c001 	ldrb	ip, [r6], #1
3000066c:	0a000013 	beq	300006c0 <strnicmp+0x80>
30000670:	e35c0000 	cmp	ip, #0	; 0x0
30000674:	e1a0100e 	mov	r1, lr
30000678:	e1a0400c 	mov	r4, ip
3000067c:	0a00000f 	beq	300006c0 <strnicmp+0x80>
30000680:	e15e000c 	cmp	lr, ip
30000684:	0a00000b 	beq	300006b8 <strnicmp+0x78>
30000688:	e7d8300e 	ldrb	r3, [r8, lr]
3000068c:	e3130001 	tst	r3, #1	; 0x1
30000690:	e7d8300c 	ldrb	r3, [r8, ip]
30000694:	e28e0020 	add	r0, lr, #32	; 0x20
30000698:	e28c5020 	add	r5, ip, #32	; 0x20
3000069c:	120010ff 	andne	r1, r0, #255	; 0xff
300006a0:	e3130001 	tst	r3, #1	; 0x1
300006a4:	120540ff 	andne	r4, r5, #255	; 0xff
300006a8:	e201e0ff 	and	lr, r1, #255	; 0xff
300006ac:	e204c0ff 	and	ip, r4, #255	; 0xff
300006b0:	e15e000c 	cmp	lr, ip
300006b4:	1a000001 	bne	300006c0 <strnicmp+0x80>
300006b8:	e2522001 	subs	r2, r2, #1	; 0x1
300006bc:	1affffe6 	bne	3000065c <strnicmp+0x1c>
300006c0:	e06c000e 	rsb	r0, ip, lr
300006c4:	e8bd81f0 	ldmia	sp!, {r4, r5, r6, r7, r8, pc}
300006c8:	300032c0 	andcc	r3, r0, r0, asr #5

300006cc <strcpy>:
300006cc:	e1a02000 	mov	r2, r0
300006d0:	e4d13001 	ldrb	r3, [r1], #1
300006d4:	e3530000 	cmp	r3, #0	; 0x0
300006d8:	e4c03001 	strb	r3, [r0], #1
300006dc:	1afffffb 	bne	300006d0 <strcpy+0x4>
300006e0:	e1a00002 	mov	r0, r2
300006e4:	e1a0f00e 	mov	pc, lr

300006e8 <strncpy>:
300006e8:	e1a0c000 	mov	ip, r0
300006ec:	e2522001 	subs	r2, r2, #1	; 0x1
300006f0:	3a000003 	bcc	30000704 <strncpy+0x1c>
300006f4:	e4d13001 	ldrb	r3, [r1], #1
300006f8:	e3530000 	cmp	r3, #0	; 0x0
300006fc:	e4c03001 	strb	r3, [r0], #1
30000700:	1afffff9 	bne	300006ec <strncpy+0x4>
30000704:	e1a0000c 	mov	r0, ip
30000708:	e1a0f00e 	mov	pc, lr

3000070c <strcat>:
3000070c:	e5d03000 	ldrb	r3, [r0]
30000710:	e1a02000 	mov	r2, r0
30000714:	ea000000 	b	3000071c <strcat+0x10>
30000718:	e5f03001 	ldrb	r3, [r0, #1]!
3000071c:	e3530000 	cmp	r3, #0	; 0x0
30000720:	1afffffc 	bne	30000718 <strcat+0xc>
30000724:	e4d13001 	ldrb	r3, [r1], #1
30000728:	e3530000 	cmp	r3, #0	; 0x0
3000072c:	e4c03001 	strb	r3, [r0], #1
30000730:	1afffffb 	bne	30000724 <strcat+0x18>
30000734:	e1a00002 	mov	r0, r2
30000738:	e1a0f00e 	mov	pc, lr

3000073c <strncat>:
3000073c:	e3520000 	cmp	r2, #0	; 0x0
30000740:	e1a0c000 	mov	ip, r0
30000744:	0a00000b 	beq	30000778 <strncat+0x3c>
30000748:	e5d03000 	ldrb	r3, [r0]
3000074c:	ea000000 	b	30000754 <strncat+0x18>
30000750:	e5f03001 	ldrb	r3, [r0, #1]!
30000754:	e3530000 	cmp	r3, #0	; 0x0
30000758:	1afffffc 	bne	30000750 <strncat+0x14>
3000075c:	e4d13001 	ldrb	r3, [r1], #1
30000760:	e3530000 	cmp	r3, #0	; 0x0
30000764:	e4c03001 	strb	r3, [r0], #1
30000768:	0a000002 	beq	30000778 <strncat+0x3c>
3000076c:	e2522001 	subs	r2, r2, #1	; 0x1
30000770:	1afffff9 	bne	3000075c <strncat+0x20>
30000774:	e5c02000 	strb	r2, [r0]
30000778:	e1a0000c 	mov	r0, ip
3000077c:	e1a0f00e 	mov	pc, lr

30000780 <strcmp>:
30000780:	e5d02000 	ldrb	r2, [r0]
30000784:	e4d13001 	ldrb	r3, [r1], #1
30000788:	e0633002 	rsb	r3, r3, r2
3000078c:	e1b0cc03 	movs	ip, r3, lsl #24
30000790:	e2800001 	add	r0, r0, #1	; 0x1
30000794:	e20330ff 	and	r3, r3, #255	; 0xff
30000798:	1a000001 	bne	300007a4 <strcmp+0x24>
3000079c:	e3520000 	cmp	r2, #0	; 0x0
300007a0:	1afffff6 	bne	30000780 <strcmp>
300007a4:	e1a00c03 	mov	r0, r3, lsl #24
300007a8:	e1a00c40 	mov	r0, r0, asr #24
300007ac:	e1a0f00e 	mov	pc, lr

300007b0 <strncmp>:
300007b0:	e3520000 	cmp	r2, #0	; 0x0
300007b4:	e52de004 	str	lr, [sp, #-4]!
300007b8:	e3a03000 	mov	r3, #0	; 0x0
300007bc:	0a00000a 	beq	300007ec <strncmp+0x3c>
300007c0:	e5d0c000 	ldrb	ip, [r0]
300007c4:	e4d13001 	ldrb	r3, [r1], #1
300007c8:	e063300c 	rsb	r3, r3, ip
300007cc:	e1b0ec03 	movs	lr, r3, lsl #24
300007d0:	e2800001 	add	r0, r0, #1	; 0x1
300007d4:	e20330ff 	and	r3, r3, #255	; 0xff
300007d8:	1a000003 	bne	300007ec <strncmp+0x3c>
300007dc:	e35c0000 	cmp	ip, #0	; 0x0
300007e0:	0a000001 	beq	300007ec <strncmp+0x3c>
300007e4:	e2522001 	subs	r2, r2, #1	; 0x1
300007e8:	1afffff4 	bne	300007c0 <strncmp+0x10>
300007ec:	e1a00c03 	mov	r0, r3, lsl #24
300007f0:	e1a00c40 	mov	r0, r0, asr #24
300007f4:	e49df004 	ldr	pc, [sp], #4

300007f8 <strchr>:
300007f8:	e5d02000 	ldrb	r2, [r0]
300007fc:	e20110ff 	and	r1, r1, #255	; 0xff
30000800:	e1520001 	cmp	r2, r1
30000804:	e1a03000 	mov	r3, r0
30000808:	0a000005 	beq	30000824 <strchr+0x2c>
3000080c:	e1a00002 	mov	r0, r2
30000810:	e3500000 	cmp	r0, #0	; 0x0
30000814:	01a0f00e 	moveq	pc, lr
30000818:	e5f30001 	ldrb	r0, [r3, #1]!
3000081c:	e1500001 	cmp	r0, r1
30000820:	1afffffa 	bne	30000810 <strchr+0x18>
30000824:	e1a00003 	mov	r0, r3
30000828:	e1a0f00e 	mov	pc, lr

3000082c <strlen>:
3000082c:	e5d03000 	ldrb	r3, [r0]
30000830:	e3530000 	cmp	r3, #0	; 0x0
30000834:	e1a02000 	mov	r2, r0
30000838:	0a000002 	beq	30000848 <strlen+0x1c>
3000083c:	e5f03001 	ldrb	r3, [r0, #1]!
30000840:	e3530000 	cmp	r3, #0	; 0x0
30000844:	1afffffc 	bne	3000083c <strlen+0x10>
30000848:	e0620000 	rsb	r0, r2, r0
3000084c:	e1a0f00e 	mov	pc, lr

30000850 <strrchr>:
30000850:	e92d4030 	stmdb	sp!, {r4, r5, lr}
30000854:	e1a04001 	mov	r4, r1
30000858:	e1a05000 	mov	r5, r0
3000085c:	ebfffff2 	bl	3000082c <strlen>
30000860:	e20440ff 	and	r4, r4, #255	; 0xff
30000864:	e0800005 	add	r0, r0, r5
30000868:	e5d03000 	ldrb	r3, [r0]
3000086c:	e1530004 	cmp	r3, r4
30000870:	08bd8030 	ldmeqia	sp!, {r4, r5, pc}
30000874:	e2400001 	sub	r0, r0, #1	; 0x1
30000878:	e1500005 	cmp	r0, r5
3000087c:	2afffff9 	bcs	30000868 <strrchr+0x18>
30000880:	e3a00000 	mov	r0, #0	; 0x0
30000884:	e8bd8030 	ldmia	sp!, {r4, r5, pc}

30000888 <strnlen>:
30000888:	e2411001 	sub	r1, r1, #1	; 0x1
3000088c:	e3710001 	cmn	r1, #1	; 0x1
30000890:	e1a02000 	mov	r2, r0
30000894:	0a000009 	beq	300008c0 <strnlen+0x38>
30000898:	e5d23000 	ldrb	r3, [r2]
3000089c:	e3530000 	cmp	r3, #0	; 0x0
300008a0:	0a000006 	beq	300008c0 <strnlen+0x38>
300008a4:	e2411001 	sub	r1, r1, #1	; 0x1
300008a8:	e3710001 	cmn	r1, #1	; 0x1
300008ac:	e2800001 	add	r0, r0, #1	; 0x1
300008b0:	0a000002 	beq	300008c0 <strnlen+0x38>
300008b4:	e5d03000 	ldrb	r3, [r0]
300008b8:	e3530000 	cmp	r3, #0	; 0x0
300008bc:	1afffff8 	bne	300008a4 <strnlen+0x1c>
300008c0:	e0620000 	rsb	r0, r2, r0
300008c4:	e1a0f00e 	mov	pc, lr

300008c8 <strspn>:
300008c8:	e92d4010 	stmdb	sp!, {r4, lr}
300008cc:	e3a0e000 	mov	lr, #0	; 0x0
300008d0:	e5d03000 	ldrb	r3, [r0]
300008d4:	e3530000 	cmp	r3, #0	; 0x0
300008d8:	0a00000a 	beq	30000908 <strspn+0x40>
300008dc:	e5d14000 	ldrb	r4, [r1]
300008e0:	e3540000 	cmp	r4, #0	; 0x0
300008e4:	e1a02001 	mov	r2, r1
300008e8:	0a000008 	beq	30000910 <strspn+0x48>
300008ec:	e5d0c000 	ldrb	ip, [r0]
300008f0:	e1a03004 	mov	r3, r4
300008f4:	e15c0003 	cmp	ip, r3
300008f8:	0a00000d 	beq	30000934 <strspn+0x6c>
300008fc:	e5f23001 	ldrb	r3, [r2, #1]!
30000900:	e3530000 	cmp	r3, #0	; 0x0
30000904:	1afffffa 	bne	300008f4 <strspn+0x2c>
30000908:	e1a0000e 	mov	r0, lr
3000090c:	e8bd8010 	ldmia	sp!, {r4, pc}
30000910:	e5d13000 	ldrb	r3, [r1]
30000914:	e3530000 	cmp	r3, #0	; 0x0
30000918:	0afffffa 	beq	30000908 <strspn+0x40>
3000091c:	e5f03001 	ldrb	r3, [r0, #1]!
30000920:	e3530000 	cmp	r3, #0	; 0x0
30000924:	e28ee001 	add	lr, lr, #1	; 0x1
30000928:	1affffec 	bne	300008e0 <strspn+0x18>
3000092c:	e1a0000e 	mov	r0, lr
30000930:	e8bd8010 	ldmia	sp!, {r4, pc}
30000934:	e5d23000 	ldrb	r3, [r2]
30000938:	eafffff5 	b	30000914 <strspn+0x4c>

3000093c <strpbrk>:
3000093c:	e52de004 	str	lr, [sp, #-4]!
30000940:	e5d03000 	ldrb	r3, [r0]
30000944:	e3530000 	cmp	r3, #0	; 0x0
30000948:	0a00000c 	beq	30000980 <strpbrk+0x44>
3000094c:	e5d1e000 	ldrb	lr, [r1]
30000950:	e25e3000 	subs	r3, lr, #0	; 0x0
30000954:	e1a02001 	mov	r2, r1
30000958:	0a000005 	beq	30000974 <strpbrk+0x38>
3000095c:	e5d0c000 	ldrb	ip, [r0]
30000960:	e15c0003 	cmp	ip, r3
30000964:	049df004 	ldreq	pc, [sp], #4
30000968:	e5f23001 	ldrb	r3, [r2, #1]!
3000096c:	e3530000 	cmp	r3, #0	; 0x0
30000970:	1afffffa 	bne	30000960 <strpbrk+0x24>
30000974:	e5f03001 	ldrb	r3, [r0, #1]!
30000978:	e3530000 	cmp	r3, #0	; 0x0
3000097c:	1afffff3 	bne	30000950 <strpbrk+0x14>
30000980:	e3a00000 	mov	r0, #0	; 0x0
30000984:	e49df004 	ldr	pc, [sp], #4

30000988 <strtok>:
30000988:	e92d4070 	stmdb	sp!, {r4, r5, r6, lr}
3000098c:	e2504000 	subs	r4, r0, #0	; 0x0
30000990:	e1a05001 	mov	r5, r1
30000994:	159f606c 	ldrne	r6, [pc, #108]	; 30000a08 <.text+0xa08>
30000998:	0a000014 	beq	300009f0 <strtok+0x68>
3000099c:	e1a00004 	mov	r0, r4
300009a0:	e1a01005 	mov	r1, r5
300009a4:	ebffffc7 	bl	300008c8 <strspn>
300009a8:	e7f43000 	ldrb	r3, [r4, r0]!
300009ac:	e20330ff 	and	r3, r3, #255	; 0xff
300009b0:	e3530000 	cmp	r3, #0	; 0x0
300009b4:	01a00003 	moveq	r0, r3
300009b8:	05863000 	streq	r3, [r6]
300009bc:	08bd8070 	ldmeqia	sp!, {r4, r5, r6, pc}
300009c0:	e1a01005 	mov	r1, r5
300009c4:	e1a00004 	mov	r0, r4
300009c8:	ebffffdb 	bl	3000093c <strpbrk>
300009cc:	e3500000 	cmp	r0, #0	; 0x0
300009d0:	0a000003 	beq	300009e4 <strtok+0x5c>
300009d4:	e5d03000 	ldrb	r3, [r0]
300009d8:	e3530000 	cmp	r3, #0	; 0x0
300009dc:	13a03000 	movne	r3, #0	; 0x0
300009e0:	14c03001 	strneb	r3, [r0], #1
300009e4:	e5860000 	str	r0, [r6]
300009e8:	e1a00004 	mov	r0, r4
300009ec:	e8bd8070 	ldmia	sp!, {r4, r5, r6, pc}
300009f0:	e59f6010 	ldr	r6, [pc, #16]	; 30000a08 <.text+0xa08>
300009f4:	e5964000 	ldr	r4, [r6]
300009f8:	e3540000 	cmp	r4, #0	; 0x0
300009fc:	01a00004 	moveq	r0, r4
30000a00:	1affffe5 	bne	3000099c <strtok+0x14>
30000a04:	e8bd8070 	ldmia	sp!, {r4, r5, r6, pc}
30000a08:	30003c88 	andcc	r3, r0, r8, lsl #25

30000a0c <strsep>:
30000a0c:	e92d4030 	stmdb	sp!, {r4, r5, lr}
30000a10:	e1a05000 	mov	r5, r0
30000a14:	e5904000 	ldr	r4, [r0]
30000a18:	e2540000 	subs	r0, r4, #0	; 0x0
30000a1c:	e1a03004 	mov	r3, r4
30000a20:	0a000005 	beq	30000a3c <strsep+0x30>
30000a24:	ebffffc4 	bl	3000093c <strpbrk>
30000a28:	e3500000 	cmp	r0, #0	; 0x0
30000a2c:	13a03000 	movne	r3, #0	; 0x0
30000a30:	14c03001 	strneb	r3, [r0], #1
30000a34:	e1a03004 	mov	r3, r4
30000a38:	e5850000 	str	r0, [r5]
30000a3c:	e1a00003 	mov	r0, r3
30000a40:	e8bd8030 	ldmia	sp!, {r4, r5, pc}

30000a44 <memset>:
30000a44:	e2422001 	sub	r2, r2, #1	; 0x1
30000a48:	e3720001 	cmn	r2, #1	; 0x1
30000a4c:	e1a03000 	mov	r3, r0
30000a50:	01a0f00e 	moveq	pc, lr
30000a54:	e2422001 	sub	r2, r2, #1	; 0x1
30000a58:	e3720001 	cmn	r2, #1	; 0x1
30000a5c:	e4c31001 	strb	r1, [r3], #1
30000a60:	1afffffb 	bne	30000a54 <memset+0x10>
30000a64:	e1a0f00e 	mov	pc, lr

30000a68 <bcopy>:
30000a68:	e2522001 	subs	r2, r2, #1	; 0x1
30000a6c:	31a0f00e 	movcc	pc, lr
30000a70:	e2422001 	sub	r2, r2, #1	; 0x1
30000a74:	e4d03001 	ldrb	r3, [r0], #1
30000a78:	e3720001 	cmn	r2, #1	; 0x1
30000a7c:	e4c13001 	strb	r3, [r1], #1
30000a80:	1afffffa 	bne	30000a70 <bcopy+0x8>
30000a84:	e1a0f00e 	mov	pc, lr

30000a88 <memcpy>:
30000a88:	e2422001 	sub	r2, r2, #1	; 0x1
30000a8c:	e3720001 	cmn	r2, #1	; 0x1
30000a90:	e1a0c000 	mov	ip, r0
30000a94:	01a0f00e 	moveq	pc, lr
30000a98:	e2422001 	sub	r2, r2, #1	; 0x1
30000a9c:	e4d13001 	ldrb	r3, [r1], #1
30000aa0:	e3720001 	cmn	r2, #1	; 0x1
30000aa4:	e4cc3001 	strb	r3, [ip], #1
30000aa8:	1afffffa 	bne	30000a98 <memcpy+0x10>
30000aac:	e1a0f00e 	mov	pc, lr

30000ab0 <memmove>:
30000ab0:	e1500001 	cmp	r0, r1
30000ab4:	8a000009 	bhi	30000ae0 <memmove+0x30>
30000ab8:	e2422001 	sub	r2, r2, #1	; 0x1
30000abc:	e3720001 	cmn	r2, #1	; 0x1
30000ac0:	e1a0c000 	mov	ip, r0
30000ac4:	01a0f00e 	moveq	pc, lr
30000ac8:	e2422001 	sub	r2, r2, #1	; 0x1
30000acc:	e4d13001 	ldrb	r3, [r1], #1
30000ad0:	e3720001 	cmn	r2, #1	; 0x1
30000ad4:	e4cc3001 	strb	r3, [ip], #1
30000ad8:	1afffffa 	bne	30000ac8 <memmove+0x18>
30000adc:	e1a0f00e 	mov	pc, lr
30000ae0:	e0811002 	add	r1, r1, r2
30000ae4:	e080c002 	add	ip, r0, r2
30000ae8:	e2522001 	subs	r2, r2, #1	; 0x1
30000aec:	31a0f00e 	movcc	pc, lr
30000af0:	e2422001 	sub	r2, r2, #1	; 0x1
30000af4:	e5713001 	ldrb	r3, [r1, #-1]!
30000af8:	e3720001 	cmn	r2, #1	; 0x1
30000afc:	e56c3001 	strb	r3, [ip, #-1]!
30000b00:	1afffffa 	bne	30000af0 <memmove+0x40>
30000b04:	e1a0f00e 	mov	pc, lr

30000b08 <memcmp>:
30000b08:	e252c000 	subs	ip, r2, #0	; 0x0
30000b0c:	e3a02000 	mov	r2, #0	; 0x0
30000b10:	0a000007 	beq	30000b34 <memcmp+0x2c>
30000b14:	e5d02000 	ldrb	r2, [r0]
30000b18:	e5d13000 	ldrb	r3, [r1]
30000b1c:	e0522003 	subs	r2, r2, r3
30000b20:	e2800001 	add	r0, r0, #1	; 0x1
30000b24:	e2811001 	add	r1, r1, #1	; 0x1
30000b28:	1a000001 	bne	30000b34 <memcmp+0x2c>
30000b2c:	e25cc001 	subs	ip, ip, #1	; 0x1
30000b30:	1afffff7 	bne	30000b14 <memcmp+0xc>
30000b34:	e1a00002 	mov	r0, r2
30000b38:	e1a0f00e 	mov	pc, lr

30000b3c <memscan>:
30000b3c:	e3520000 	cmp	r2, #0	; 0x0
30000b40:	01a0f00e 	moveq	pc, lr
30000b44:	e5d03000 	ldrb	r3, [r0]
30000b48:	e1530001 	cmp	r3, r1
30000b4c:	01a0f00e 	moveq	pc, lr
30000b50:	e2522001 	subs	r2, r2, #1	; 0x1
30000b54:	e2800001 	add	r0, r0, #1	; 0x1
30000b58:	1afffff9 	bne	30000b44 <memscan+0x8>
30000b5c:	e1a0f00e 	mov	pc, lr

30000b60 <strstr>:
30000b60:	e92d40f0 	stmdb	sp!, {r4, r5, r6, r7, lr}
30000b64:	e1a05000 	mov	r5, r0
30000b68:	e1a00001 	mov	r0, r1
30000b6c:	e1a07001 	mov	r7, r1
30000b70:	ebffff2d 	bl	3000082c <strlen>
30000b74:	e2506000 	subs	r6, r0, #0	; 0x0
30000b78:	1a000001 	bne	30000b84 <strstr+0x24>
30000b7c:	e1a00005 	mov	r0, r5
30000b80:	e8bd80f0 	ldmia	sp!, {r4, r5, r6, r7, pc}
30000b84:	e1a00005 	mov	r0, r5
30000b88:	ebffff27 	bl	3000082c <strlen>
30000b8c:	e1500006 	cmp	r0, r6
30000b90:	e1a04000 	mov	r4, r0
30000b94:	ba000009 	blt	30000bc0 <strstr+0x60>
30000b98:	e1a00005 	mov	r0, r5
30000b9c:	e1a01007 	mov	r1, r7
30000ba0:	e1a02006 	mov	r2, r6
30000ba4:	ebffffd7 	bl	30000b08 <memcmp>
30000ba8:	e3500000 	cmp	r0, #0	; 0x0
30000bac:	e2444001 	sub	r4, r4, #1	; 0x1
30000bb0:	0afffff1 	beq	30000b7c <strstr+0x1c>
30000bb4:	e1540006 	cmp	r4, r6
30000bb8:	e2855001 	add	r5, r5, #1	; 0x1
30000bbc:	aafffff5 	bge	30000b98 <strstr+0x38>
30000bc0:	e3a00000 	mov	r0, #0	; 0x0
30000bc4:	e8bd80f0 	ldmia	sp!, {r4, r5, r6, r7, pc}

30000bc8 <memchr>:
30000bc8:	e2522001 	subs	r2, r2, #1	; 0x1
30000bcc:	3a000007 	bcc	30000bf0 <memchr+0x28>
30000bd0:	e20110ff 	and	r1, r1, #255	; 0xff
30000bd4:	e2400001 	sub	r0, r0, #1	; 0x1
30000bd8:	e5f03001 	ldrb	r3, [r0, #1]!
30000bdc:	e1530001 	cmp	r3, r1
30000be0:	e2422001 	sub	r2, r2, #1	; 0x1
30000be4:	01a0f00e 	moveq	pc, lr
30000be8:	e3720001 	cmn	r2, #1	; 0x1
30000bec:	1afffff9 	bne	30000bd8 <memchr+0x10>
30000bf0:	e3a00000 	mov	r0, #0	; 0x0
30000bf4:	e1a0f00e 	mov	pc, lr

30000bf8 <simple_strtoul>:
30000bf8:	e92d4030 	stmdb	sp!, {r4, r5, lr}
30000bfc:	e252e000 	subs	lr, r2, #0	; 0x0
30000c00:	e1a04001 	mov	r4, r1
30000c04:	e3a01000 	mov	r1, #0	; 0x0
30000c08:	1a000018 	bne	30000c70 <simple_strtoul+0x78>
30000c0c:	e5d0c000 	ldrb	ip, [r0]
30000c10:	e35c0030 	cmp	ip, #48	; 0x30
30000c14:	e3a0e00a 	mov	lr, #10	; 0xa
30000c18:	0a000023 	beq	30000cac <simple_strtoul+0xb4>
30000c1c:	e59f50c8 	ldr	r5, [pc, #200]	; 30000cec <.text+0xcec>
30000c20:	ea000009 	b	30000c4c <simple_strtoul+0x54>
30000c24:	e3120004 	tst	r2, #4	; 0x4
30000c28:	1a000003 	bne	30000c3c <simple_strtoul+0x44>
30000c2c:	e3120002 	tst	r2, #2	; 0x2
30000c30:	e2432020 	sub	r2, r3, #32	; 0x20
30000c34:	120230ff 	andne	r3, r2, #255	; 0xff
30000c38:	e243c037 	sub	ip, r3, #55	; 0x37
30000c3c:	e15c000e 	cmp	ip, lr
30000c40:	2a000006 	bcs	30000c60 <simple_strtoul+0x68>
30000c44:	e021c19e 	mla	r1, lr, r1, ip
30000c48:	e5f0c001 	ldrb	ip, [r0, #1]!
30000c4c:	e20c30ff 	and	r3, ip, #255	; 0xff
30000c50:	e7d52003 	ldrb	r2, [r5, r3]
30000c54:	e3120044 	tst	r2, #68	; 0x44
30000c58:	e243c030 	sub	ip, r3, #48	; 0x30
30000c5c:	1afffff0 	bne	30000c24 <simple_strtoul+0x2c>
30000c60:	e3540000 	cmp	r4, #0	; 0x0
30000c64:	15840000 	strne	r0, [r4]
30000c68:	e1a00001 	mov	r0, r1
30000c6c:	e8bd8030 	ldmia	sp!, {r4, r5, pc}
30000c70:	e35e0010 	cmp	lr, #16	; 0x10
30000c74:	15d0c000 	ldrneb	ip, [r0]
30000c78:	1affffe7 	bne	30000c1c <simple_strtoul+0x24>
30000c7c:	e5d0c000 	ldrb	ip, [r0]
30000c80:	e35c0030 	cmp	ip, #48	; 0x30
30000c84:	1affffe4 	bne	30000c1c <simple_strtoul+0x24>
30000c88:	e5d02001 	ldrb	r2, [r0, #1]
30000c8c:	e59f5058 	ldr	r5, [pc, #88]	; 30000cec <.text+0xcec>
30000c90:	e7d53002 	ldrb	r3, [r5, r2]
30000c94:	e3130002 	tst	r3, #2	; 0x2
30000c98:	12423020 	subne	r3, r2, #32	; 0x20
30000c9c:	120320ff 	andne	r2, r3, #255	; 0xff
30000ca0:	e3520058 	cmp	r2, #88	; 0x58
30000ca4:	05f0c002 	ldreqb	ip, [r0, #2]!
30000ca8:	eaffffe7 	b	30000c4c <simple_strtoul+0x54>
30000cac:	e5f0c001 	ldrb	ip, [r0, #1]!
30000cb0:	e59f5034 	ldr	r5, [pc, #52]	; 30000cec <.text+0xcec>
30000cb4:	e20c20ff 	and	r2, ip, #255	; 0xff
30000cb8:	e7d53002 	ldrb	r3, [r5, r2]
30000cbc:	e3130002 	tst	r3, #2	; 0x2
30000cc0:	12423020 	subne	r3, r2, #32	; 0x20
30000cc4:	120320ff 	andne	r2, r3, #255	; 0xff
30000cc8:	e3520058 	cmp	r2, #88	; 0x58
30000ccc:	e24ee002 	sub	lr, lr, #2	; 0x2
30000cd0:	1affffdd 	bne	30000c4c <simple_strtoul+0x54>
30000cd4:	e5d03001 	ldrb	r3, [r0, #1]
30000cd8:	e7d52003 	ldrb	r2, [r5, r3]
30000cdc:	e3120044 	tst	r2, #68	; 0x44
30000ce0:	15f0c001 	ldrneb	ip, [r0, #1]!
30000ce4:	13a0e010 	movne	lr, #16	; 0x10
30000ce8:	eaffffd7 	b	30000c4c <simple_strtoul+0x54>
30000cec:	300032c0 	andcc	r3, r0, r0, asr #5

30000cf0 <simple_strtol>:
30000cf0:	e52de004 	str	lr, [sp, #-4]!
30000cf4:	e5d03000 	ldrb	r3, [r0]
30000cf8:	e353002d 	cmp	r3, #45	; 0x2d
30000cfc:	0a000001 	beq	30000d08 <simple_strtol+0x18>
30000d00:	e49de004 	ldr	lr, [sp], #4
30000d04:	eaffffbb 	b	30000bf8 <simple_strtoul>
30000d08:	e2800001 	add	r0, r0, #1	; 0x1
30000d0c:	ebffffb9 	bl	30000bf8 <simple_strtoul>
30000d10:	e2600000 	rsb	r0, r0, #0	; 0x0
30000d14:	e49df004 	ldr	pc, [sp], #4

30000d18 <simple_strtoull>:
30000d18:	e92d4ff0 	stmdb	sp!, {r4, r5, r6, r7, r8, r9, sl, fp, lr}
30000d1c:	e252e000 	subs	lr, r2, #0	; 0x0
30000d20:	e1a08000 	mov	r8, r0
30000d24:	e1a09001 	mov	r9, r1
30000d28:	e3a0b000 	mov	fp, #0	; 0x0
30000d2c:	e3a0a000 	mov	sl, #0	; 0x0
30000d30:	1a000029 	bne	30000ddc <simple_strtoull+0xc4>
30000d34:	e5d0c000 	ldrb	ip, [r0]
30000d38:	e35c0030 	cmp	ip, #48	; 0x30
30000d3c:	e3a0e00a 	mov	lr, #10	; 0xa
30000d40:	0a000034 	beq	30000e18 <simple_strtoull+0x100>
30000d44:	e1a0600e 	mov	r6, lr
30000d48:	e3a07000 	mov	r7, #0	; 0x0
30000d4c:	ea000017 	b	30000db0 <simple_strtoull+0x98>
30000d50:	e3120004 	tst	r2, #4	; 0x4
30000d54:	1a000004 	bne	30000d6c <simple_strtoull+0x54>
30000d58:	e2413020 	sub	r3, r1, #32	; 0x20
30000d5c:	e20330ff 	and	r3, r3, #255	; 0xff
30000d60:	e3120002 	tst	r2, #2	; 0x2
30000d64:	e243c037 	sub	ip, r3, #55	; 0x37
30000d68:	0241c037 	subeq	ip, r1, #55	; 0x37
30000d6c:	e1a0400c 	mov	r4, ip
30000d70:	e1a05fc4 	mov	r5, r4, asr #31
30000d74:	e1570005 	cmp	r7, r5
30000d78:	e1a0300b 	mov	r3, fp
30000d7c:	e1a0200a 	mov	r2, sl
30000d80:	e1a01007 	mov	r1, r7
30000d84:	e1a00006 	mov	r0, r6
30000d88:	8a000002 	bhi	30000d98 <simple_strtoull+0x80>
30000d8c:	1a00000d 	bne	30000dc8 <simple_strtoull+0xb0>
30000d90:	e1560004 	cmp	r6, r4
30000d94:	9a00000b 	bls	30000dc8 <simple_strtoull+0xb0>
30000d98:	eb0004d4 	bl	300020f0 <__muldi3>
30000d9c:	e5f8c001 	ldrb	ip, [r8, #1]!
30000da0:	e1a0b001 	mov	fp, r1
30000da4:	e1a0a000 	mov	sl, r0
30000da8:	e090a004 	adds	sl, r0, r4
30000dac:	e0abb005 	adc	fp, fp, r5
30000db0:	e59f30a4 	ldr	r3, [pc, #164]	; 30000e5c <.text+0xe5c>
30000db4:	e20c10ff 	and	r1, ip, #255	; 0xff
30000db8:	e7d32001 	ldrb	r2, [r3, r1]
30000dbc:	e3120044 	tst	r2, #68	; 0x44
30000dc0:	e241c030 	sub	ip, r1, #48	; 0x30
30000dc4:	1affffe1 	bne	30000d50 <simple_strtoull+0x38>
30000dc8:	e3590000 	cmp	r9, #0	; 0x0
30000dcc:	e1a0100b 	mov	r1, fp
30000dd0:	e1a0000a 	mov	r0, sl
30000dd4:	15898000 	strne	r8, [r9]
30000dd8:	e8bd8ff0 	ldmia	sp!, {r4, r5, r6, r7, r8, r9, sl, fp, pc}
30000ddc:	e35e0010 	cmp	lr, #16	; 0x10
30000de0:	15d0c000 	ldrneb	ip, [r0]
30000de4:	1affffd6 	bne	30000d44 <simple_strtoull+0x2c>
30000de8:	e5d0c000 	ldrb	ip, [r0]
30000dec:	e35c0030 	cmp	ip, #48	; 0x30
30000df0:	1affffd3 	bne	30000d44 <simple_strtoull+0x2c>
30000df4:	e5d02001 	ldrb	r2, [r0, #1]
30000df8:	e59f105c 	ldr	r1, [pc, #92]	; 30000e5c <.text+0xe5c>
30000dfc:	e7d13002 	ldrb	r3, [r1, r2]
30000e00:	e3130002 	tst	r3, #2	; 0x2
30000e04:	12423020 	subne	r3, r2, #32	; 0x20
30000e08:	120320ff 	andne	r2, r3, #255	; 0xff
30000e0c:	e3520058 	cmp	r2, #88	; 0x58
30000e10:	05f8c002 	ldreqb	ip, [r8, #2]!
30000e14:	eaffffca 	b	30000d44 <simple_strtoull+0x2c>
30000e18:	e5f8c001 	ldrb	ip, [r8, #1]!
30000e1c:	e59f1038 	ldr	r1, [pc, #56]	; 30000e5c <.text+0xe5c>
30000e20:	e20c20ff 	and	r2, ip, #255	; 0xff
30000e24:	e7d13002 	ldrb	r3, [r1, r2]
30000e28:	e3130002 	tst	r3, #2	; 0x2
30000e2c:	12423020 	subne	r3, r2, #32	; 0x20
30000e30:	120320ff 	andne	r2, r3, #255	; 0xff
30000e34:	e3520058 	cmp	r2, #88	; 0x58
30000e38:	e24ee002 	sub	lr, lr, #2	; 0x2
30000e3c:	1affffc0 	bne	30000d44 <simple_strtoull+0x2c>
30000e40:	e5d83001 	ldrb	r3, [r8, #1]
30000e44:	e59f1010 	ldr	r1, [pc, #16]	; 30000e5c <.text+0xe5c>
30000e48:	e7d12003 	ldrb	r2, [r1, r3]
30000e4c:	e3120044 	tst	r2, #68	; 0x44
30000e50:	15f8c001 	ldrneb	ip, [r8, #1]!
30000e54:	13a0e010 	movne	lr, #16	; 0x10
30000e58:	eaffffb9 	b	30000d44 <simple_strtoull+0x2c>
30000e5c:	300032c0 	andcc	r3, r0, r0, asr #5

30000e60 <simple_strtoll>:
30000e60:	e52de004 	str	lr, [sp, #-4]!
30000e64:	e5d03000 	ldrb	r3, [r0]
30000e68:	e353002d 	cmp	r3, #45	; 0x2d
30000e6c:	0a000001 	beq	30000e78 <simple_strtoll+0x18>
30000e70:	e49de004 	ldr	lr, [sp], #4
30000e74:	eaffffa7 	b	30000d18 <simple_strtoull>
30000e78:	e2800001 	add	r0, r0, #1	; 0x1
30000e7c:	ebffffa5 	bl	30000d18 <simple_strtoull>
30000e80:	e2700000 	rsbs	r0, r0, #0	; 0x0
30000e84:	e2e11000 	rsc	r1, r1, #0	; 0x0
30000e88:	e49df004 	ldr	pc, [sp], #4

30000e8c <skip_atoi>:
30000e8c:	e92d4010 	stmdb	sp!, {r4, lr}
30000e90:	e59f4040 	ldr	r4, [pc, #64]	; 30000ed8 <.text+0xed8>
30000e94:	e1a0e000 	mov	lr, r0
30000e98:	e590c000 	ldr	ip, [r0]
30000e9c:	e5dc3000 	ldrb	r3, [ip]
30000ea0:	e7d42003 	ldrb	r2, [r4, r3]
30000ea4:	e3120004 	tst	r2, #4	; 0x4
30000ea8:	e3a00000 	mov	r0, #0	; 0x0
30000eac:	08bd8010 	ldmeqia	sp!, {r4, pc}
30000eb0:	e4dc1001 	ldrb	r1, [ip], #1
30000eb4:	e58ec000 	str	ip, [lr]
30000eb8:	e0803100 	add	r3, r0, r0, lsl #2
30000ebc:	e0811083 	add	r1, r1, r3, lsl #1
30000ec0:	e2410030 	sub	r0, r1, #48	; 0x30
30000ec4:	e5dc3000 	ldrb	r3, [ip]
30000ec8:	e7d42003 	ldrb	r2, [r4, r3]
30000ecc:	e3120004 	tst	r2, #4	; 0x4
30000ed0:	1afffff6 	bne	30000eb0 <skip_atoi+0x24>
30000ed4:	e8bd8010 	ldmia	sp!, {r4, pc}
30000ed8:	300032c0 	andcc	r3, r0, r0, asr #5

30000edc <number>:
30000edc:	e92d4ff0 	stmdb	sp!, {r4, r5, r6, r7, r8, r9, sl, fp, lr}
30000ee0:	e59fe2d4 	ldr	lr, [pc, #724]	; 300011bc <.text+0x11bc>
30000ee4:	e1a09001 	mov	r9, r1
30000ee8:	e1a07003 	mov	r7, r3
30000eec:	e1a06002 	mov	r6, r2
30000ef0:	e1a05000 	mov	r5, r0
30000ef4:	e24dd054 	sub	sp, sp, #84	; 0x54
30000ef8:	e59dc084 	ldr	ip, [sp, #132]
30000efc:	e31c0040 	tst	ip, #64	; 0x40
30000f00:	e59fc2b8 	ldr	ip, [pc, #696]	; 300011c0 <.text+0x11c0>
30000f04:	11a0e00c 	movne	lr, ip
30000f08:	e59dc084 	ldr	ip, [sp, #132]
30000f0c:	e59d1078 	ldr	r1, [sp, #120]
30000f10:	e31c0010 	tst	ip, #16	; 0x10
30000f14:	13ccc001 	bicne	ip, ip, #1	; 0x1
30000f18:	e2413002 	sub	r3, r1, #2	; 0x2
30000f1c:	158dc084 	strne	ip, [sp, #132]
30000f20:	e3530022 	cmp	r3, #34	; 0x22
30000f24:	e28d807c 	add	r8, sp, #124	; 0x7c
30000f28:	e8980900 	ldmia	r8, {r8, fp}
30000f2c:	e58de004 	str	lr, [sp, #4]
30000f30:	83a00000 	movhi	r0, #0	; 0x0
30000f34:	8a00007b 	bhi	30001128 <number+0x24c>
30000f38:	e59d2084 	ldr	r2, [sp, #132]
30000f3c:	e3120001 	tst	r2, #1	; 0x1
30000f40:	03a03020 	moveq	r3, #32	; 0x20
30000f44:	13a03030 	movne	r3, #48	; 0x30
30000f48:	e3a0c000 	mov	ip, #0	; 0x0
30000f4c:	e3120002 	tst	r2, #2	; 0x2
30000f50:	e58d300c 	str	r3, [sp, #12]
30000f54:	e58dc008 	str	ip, [sp, #8]
30000f58:	1a000074 	bne	30001130 <number+0x254>
30000f5c:	e59d2084 	ldr	r2, [sp, #132]
30000f60:	e2122020 	ands	r2, r2, #32	; 0x20
30000f64:	e58d2000 	str	r2, [sp]
30000f68:	0a000006 	beq	30000f88 <number+0xac>
30000f6c:	e59d3078 	ldr	r3, [sp, #120]
30000f70:	e3530010 	cmp	r3, #16	; 0x10
30000f74:	02488002 	subeq	r8, r8, #2	; 0x2
30000f78:	0a000002 	beq	30000f88 <number+0xac>
30000f7c:	e59dc078 	ldr	ip, [sp, #120]
30000f80:	e35c0008 	cmp	ip, #8	; 0x8
30000f84:	02488001 	subeq	r8, r8, #1	; 0x1
30000f88:	e1961007 	orrs	r1, r6, r7
30000f8c:	e3a0a000 	mov	sl, #0	; 0x0
30000f90:	03a03030 	moveq	r3, #48	; 0x30
30000f94:	028aa001 	addeq	sl, sl, #1	; 0x1
30000f98:	05cd3010 	streqb	r3, [sp, #16]
30000f9c:	0a00000d 	beq	30000fd8 <number+0xfc>
30000fa0:	e59d4078 	ldr	r4, [sp, #120]
30000fa4:	e1a01007 	mov	r1, r7
30000fa8:	e1a00006 	mov	r0, r6
30000fac:	eb000403 	bl	30001fc0 <__do_div64>
30000fb0:	e1a07003 	mov	r7, r3
30000fb4:	e1a06002 	mov	r6, r2
30000fb8:	e59d3004 	ldr	r3, [sp, #4]
30000fbc:	e7d12003 	ldrb	r2, [r1, r3]
30000fc0:	e28d1054 	add	r1, sp, #84	; 0x54
30000fc4:	e08a3001 	add	r3, sl, r1
30000fc8:	e196c007 	orrs	ip, r6, r7
30000fcc:	e5432044 	strb	r2, [r3, #-68]
30000fd0:	e28aa001 	add	sl, sl, #1	; 0x1
30000fd4:	1afffff2 	bne	30000fa4 <number+0xc8>
30000fd8:	e59d2084 	ldr	r2, [sp, #132]
30000fdc:	e15b000a 	cmp	fp, sl
30000fe0:	b1a0b00a 	movlt	fp, sl
30000fe4:	e3120011 	tst	r2, #17	; 0x11
30000fe8:	e06b8008 	rsb	r8, fp, r8
30000fec:	1a00000a 	bne	3000101c <number+0x140>
30000ff0:	e3580000 	cmp	r8, #0	; 0x0
30000ff4:	e2488001 	sub	r8, r8, #1	; 0x1
30000ff8:	da000007 	ble	3000101c <number+0x140>
30000ffc:	e3a02020 	mov	r2, #32	; 0x20
30001000:	e1550009 	cmp	r5, r9
30001004:	e1a03008 	mov	r3, r8
30001008:	95c52000 	strlsb	r2, [r5]
3000100c:	e3530000 	cmp	r3, #0	; 0x0
30001010:	e2488001 	sub	r8, r8, #1	; 0x1
30001014:	e2855001 	add	r5, r5, #1	; 0x1
30001018:	cafffff8 	bgt	30001000 <number+0x124>
3000101c:	e59d3008 	ldr	r3, [sp, #8]
30001020:	e3530000 	cmp	r3, #0	; 0x0
30001024:	0a000002 	beq	30001034 <number+0x158>
30001028:	e1550009 	cmp	r5, r9
3000102c:	95c53000 	strlsb	r3, [r5]
30001030:	e2855001 	add	r5, r5, #1	; 0x1
30001034:	e59dc000 	ldr	ip, [sp]
30001038:	e35c0000 	cmp	ip, #0	; 0x0
3000103c:	0a000005 	beq	30001058 <number+0x17c>
30001040:	e59d1078 	ldr	r1, [sp, #120]
30001044:	e3510008 	cmp	r1, #8	; 0x8
30001048:	0a000046 	beq	30001168 <number+0x28c>
3000104c:	e59d2078 	ldr	r2, [sp, #120]
30001050:	e3520010 	cmp	r2, #16	; 0x10
30001054:	0a000048 	beq	3000117c <number+0x2a0>
30001058:	e59d1084 	ldr	r1, [sp, #132]
3000105c:	e3110010 	tst	r1, #16	; 0x10
30001060:	1a00000a 	bne	30001090 <number+0x1b4>
30001064:	e3580000 	cmp	r8, #0	; 0x0
30001068:	e2488001 	sub	r8, r8, #1	; 0x1
3000106c:	da000007 	ble	30001090 <number+0x1b4>
30001070:	e1550009 	cmp	r5, r9
30001074:	959d200c 	ldrls	r2, [sp, #12]
30001078:	e1a03008 	mov	r3, r8
3000107c:	95c52000 	strlsb	r2, [r5]
30001080:	e2488001 	sub	r8, r8, #1	; 0x1
30001084:	e3530000 	cmp	r3, #0	; 0x0
30001088:	e2855001 	add	r5, r5, #1	; 0x1
3000108c:	cafffff7 	bgt	30001070 <number+0x194>
30001090:	e15b000a 	cmp	fp, sl
30001094:	e24bb001 	sub	fp, fp, #1	; 0x1
30001098:	da000007 	ble	300010bc <number+0x1e0>
3000109c:	e3a02030 	mov	r2, #48	; 0x30
300010a0:	e1550009 	cmp	r5, r9
300010a4:	e1a0300b 	mov	r3, fp
300010a8:	95c52000 	strlsb	r2, [r5]
300010ac:	e153000a 	cmp	r3, sl
300010b0:	e24bb001 	sub	fp, fp, #1	; 0x1
300010b4:	e2855001 	add	r5, r5, #1	; 0x1
300010b8:	cafffff8 	bgt	300010a0 <number+0x1c4>
300010bc:	e35a0000 	cmp	sl, #0	; 0x0
300010c0:	e24aa001 	sub	sl, sl, #1	; 0x1
300010c4:	da00000b 	ble	300010f8 <number+0x21c>
300010c8:	e28dc054 	add	ip, sp, #84	; 0x54
300010cc:	e08a300c 	add	r3, sl, ip
300010d0:	e2432044 	sub	r2, r3, #68	; 0x44
300010d4:	e1550009 	cmp	r5, r9
300010d8:	95d23000 	ldrlsb	r3, [r2]
300010dc:	e1a0100a 	mov	r1, sl
300010e0:	95c53000 	strlsb	r3, [r5]
300010e4:	e3510000 	cmp	r1, #0	; 0x0
300010e8:	e24aa001 	sub	sl, sl, #1	; 0x1
300010ec:	e2855001 	add	r5, r5, #1	; 0x1
300010f0:	e2422001 	sub	r2, r2, #1	; 0x1
300010f4:	cafffff6 	bgt	300010d4 <number+0x1f8>
300010f8:	e3580000 	cmp	r8, #0	; 0x0
300010fc:	e2488001 	sub	r8, r8, #1	; 0x1
30001100:	da000007 	ble	30001124 <number+0x248>
30001104:	e3a02020 	mov	r2, #32	; 0x20
30001108:	e1550009 	cmp	r5, r9
3000110c:	e1a03008 	mov	r3, r8
30001110:	95c52000 	strlsb	r2, [r5]
30001114:	e3530000 	cmp	r3, #0	; 0x0
30001118:	e2488001 	sub	r8, r8, #1	; 0x1
3000111c:	e2855001 	add	r5, r5, #1	; 0x1
30001120:	cafffff8 	bgt	30001108 <number+0x22c>
30001124:	e1a00005 	mov	r0, r5
30001128:	e28dd054 	add	sp, sp, #84	; 0x54
3000112c:	e8bd8ff0 	ldmia	sp!, {r4, r5, r6, r7, r8, r9, sl, fp, pc}
30001130:	e157000c 	cmp	r7, ip
30001134:	ba00001a 	blt	300011a4 <number+0x2c8>
30001138:	e59d2084 	ldr	r2, [sp, #132]
3000113c:	e3120004 	tst	r2, #4	; 0x4
30001140:	13a0302b 	movne	r3, #43	; 0x2b
30001144:	12488001 	subne	r8, r8, #1	; 0x1
30001148:	158d3008 	strne	r3, [sp, #8]
3000114c:	1affff82 	bne	30000f5c <number+0x80>
30001150:	e59dc084 	ldr	ip, [sp, #132]
30001154:	e31c0008 	tst	ip, #8	; 0x8
30001158:	13a01020 	movne	r1, #32	; 0x20
3000115c:	12488001 	subne	r8, r8, #1	; 0x1
30001160:	158d1008 	strne	r1, [sp, #8]
30001164:	eaffff7c 	b	30000f5c <number+0x80>
30001168:	e1550009 	cmp	r5, r9
3000116c:	93a03030 	movls	r3, #48	; 0x30
30001170:	9a000009 	bls	3000119c <number+0x2c0>
30001174:	e2855001 	add	r5, r5, #1	; 0x1
30001178:	eaffffb6 	b	30001058 <number+0x17c>
3000117c:	e1550009 	cmp	r5, r9
30001180:	93a03030 	movls	r3, #48	; 0x30
30001184:	95c53000 	strlsb	r3, [r5]
30001188:	e2855001 	add	r5, r5, #1	; 0x1
3000118c:	e1550009 	cmp	r5, r9
30001190:	8afffff7 	bhi	30001174 <number+0x298>
30001194:	e59dc004 	ldr	ip, [sp, #4]
30001198:	e5dc3021 	ldrb	r3, [ip, #33]
3000119c:	e4c53001 	strb	r3, [r5], #1
300011a0:	eaffffac 	b	30001058 <number+0x17c>
300011a4:	e3a0102d 	mov	r1, #45	; 0x2d
300011a8:	e2766000 	rsbs	r6, r6, #0	; 0x0
300011ac:	e2e77000 	rsc	r7, r7, #0	; 0x0
300011b0:	e2488001 	sub	r8, r8, #1	; 0x1
300011b4:	e58d1008 	str	r1, [sp, #8]
300011b8:	eaffff67 	b	30000f5c <number+0x80>
300011bc:	30003264 	andcc	r3, r0, r4, ror #4
300011c0:	3000328c 	andcc	r3, r0, ip, lsl #5

300011c4 <vsnprintf>:
300011c4:	e92d4ff0 	stmdb	sp!, {r4, r5, r6, r7, r8, r9, sl, fp, lr}
300011c8:	e3510000 	cmp	r1, #0	; 0x0
300011cc:	e1a09003 	mov	r9, r3
300011d0:	b59f360c 	ldrlt	r3, [pc, #1548]	; 300017e4 <.text+0x17e4>
300011d4:	e1a0c002 	mov	ip, r2
300011d8:	e1a0a000 	mov	sl, r0
300011dc:	e24dd018 	sub	sp, sp, #24	; 0x18
300011e0:	e58d2014 	str	r2, [sp, #20]
300011e4:	b3a02000 	movlt	r2, #0	; 0x0
300011e8:	b1a00002 	movlt	r0, r2
300011ec:	e58d1010 	str	r1, [sp, #16]
300011f0:	b5832000 	strlt	r2, [r3]
300011f4:	ba000024 	blt	3000128c <vsnprintf+0xc8>
300011f8:	e59d2010 	ldr	r2, [sp, #16]
300011fc:	e08a3002 	add	r3, sl, r2
30001200:	e2437001 	sub	r7, r3, #1	; 0x1
30001204:	e24a2001 	sub	r2, sl, #1	; 0x1
30001208:	e1520007 	cmp	r2, r7
3000120c:	826a3000 	rsbhi	r3, sl, #0	; 0x0
30001210:	858d3010 	strhi	r3, [sp, #16]
30001214:	e1a0300c 	mov	r3, ip
30001218:	e1a0c003 	mov	ip, r3
3000121c:	83e07000 	mvnhi	r7, #0	; 0x0
30001220:	e1a0400a 	mov	r4, sl
30001224:	e5d33000 	ldrb	r3, [r3]
30001228:	e3530000 	cmp	r3, #0	; 0x0
3000122c:	0a00000d 	beq	30001268 <vsnprintf+0xa4>
30001230:	e3530025 	cmp	r3, #37	; 0x25
30001234:	03a05000 	moveq	r5, #0	; 0x0
30001238:	0a000016 	beq	30001298 <vsnprintf+0xd4>
3000123c:	e1540007 	cmp	r4, r7
30001240:	8a000001 	bhi	3000124c <vsnprintf+0x88>
30001244:	e5c43000 	strb	r3, [r4]
30001248:	e59dc014 	ldr	ip, [sp, #20]
3000124c:	e2844001 	add	r4, r4, #1	; 0x1
30001250:	e28c3001 	add	r3, ip, #1	; 0x1
30001254:	e58d3014 	str	r3, [sp, #20]
30001258:	e1a0c003 	mov	ip, r3
3000125c:	e5d33000 	ldrb	r3, [r3]
30001260:	e3530000 	cmp	r3, #0	; 0x0
30001264:	1afffff1 	bne	30001230 <vsnprintf+0x6c>
30001268:	e1540007 	cmp	r4, r7
3000126c:	93a03000 	movls	r3, #0	; 0x0
30001270:	95c43000 	strlsb	r3, [r4]
30001274:	9a000003 	bls	30001288 <vsnprintf+0xc4>
30001278:	e59d2010 	ldr	r2, [sp, #16]
3000127c:	e3520000 	cmp	r2, #0	; 0x0
30001280:	13a03000 	movne	r3, #0	; 0x0
30001284:	15c73000 	strneb	r3, [r7]
30001288:	e06a0004 	rsb	r0, sl, r4
3000128c:	e28dd018 	add	sp, sp, #24	; 0x18
30001290:	e8bd8ff0 	ldmia	sp!, {r4, r5, r6, r7, r8, r9, sl, fp, pc}
30001294:	e3855001 	orr	r5, r5, #1	; 0x1
30001298:	e28cc001 	add	ip, ip, #1	; 0x1
3000129c:	e58dc014 	str	ip, [sp, #20]
300012a0:	e5dc3000 	ldrb	r3, [ip]
300012a4:	e2433020 	sub	r3, r3, #32	; 0x20
300012a8:	e3530010 	cmp	r3, #16	; 0x10
300012ac:	979ff103 	ldrls	pc, [pc, r3, lsl #2]
300012b0:	ea000010 	b	300012f8 <.text+0x12f8>
300012b4:	300014d4 	ldrccd	r1, [r0], -r4
300012b8:	300012f8 	strccd	r1, [r0], -r8
300012bc:	300012f8 	strccd	r1, [r0], -r8
300012c0:	300014cc 	andcc	r1, r0, ip, asr #9
300012c4:	300012f8 	strccd	r1, [r0], -r8
300012c8:	300012f8 	strccd	r1, [r0], -r8
300012cc:	300012f8 	strccd	r1, [r0], -r8
300012d0:	300012f8 	strccd	r1, [r0], -r8
300012d4:	300012f8 	strccd	r1, [r0], -r8
300012d8:	300012f8 	strccd	r1, [r0], -r8
300012dc:	300012f8 	strccd	r1, [r0], -r8
300012e0:	300014c4 	andcc	r1, r0, r4, asr #9
300012e4:	300012f8 	strccd	r1, [r0], -r8
300012e8:	300014bc 	strcch	r1, [r0], -ip
300012ec:	300012f8 	strccd	r1, [r0], -r8
300012f0:	300012f8 	strccd	r1, [r0], -r8
300012f4:	30001294 	mulcc	r0, r4, r2
300012f8:	e59f64e8 	ldr	r6, [pc, #1256]	; 300017e8 <.text+0x17e8>
300012fc:	e5dc2000 	ldrb	r2, [ip]
30001300:	e7d63002 	ldrb	r3, [r6, r2]
30001304:	e3130004 	tst	r3, #4	; 0x4
30001308:	e3e08000 	mvn	r8, #0	; 0x0
3000130c:	1a00007c 	bne	30001504 <.text+0x1504>
30001310:	e352002a 	cmp	r2, #42	; 0x2a
30001314:	0a000091 	beq	30001560 <.text+0x1560>
30001318:	e5dc3000 	ldrb	r3, [ip]
3000131c:	e353002e 	cmp	r3, #46	; 0x2e
30001320:	e3e0b000 	mvn	fp, #0	; 0x0
30001324:	0a00007e 	beq	30001524 <.text+0x1524>
30001328:	e5dc3000 	ldrb	r3, [ip]
3000132c:	e353006c 	cmp	r3, #108	; 0x6c
30001330:	13530068 	cmpne	r3, #104	; 0x68
30001334:	e3e02000 	mvn	r2, #0	; 0x0
30001338:	0a000067 	beq	300014dc <.text+0x14dc>
3000133c:	e353004c 	cmp	r3, #76	; 0x4c
30001340:	0a000065 	beq	300014dc <.text+0x14dc>
30001344:	e353005a 	cmp	r3, #90	; 0x5a
30001348:	0a000063 	beq	300014dc <.text+0x14dc>
3000134c:	e353007a 	cmp	r3, #122	; 0x7a
30001350:	0a000061 	beq	300014dc <.text+0x14dc>
30001354:	e5dc3000 	ldrb	r3, [ip]
30001358:	e2433025 	sub	r3, r3, #37	; 0x25
3000135c:	e3a0e00a 	mov	lr, #10	; 0xa
30001360:	e3530053 	cmp	r3, #83	; 0x53
30001364:	979ff103 	ldrls	pc, [pc, r3, lsl #2]
30001368:	ea0000ac 	b	30001620 <.text+0x1620>
3000136c:	30001648 	andcc	r1, r0, r8, asr #12
30001370:	30001620 	andcc	r1, r0, r0, lsr #12
30001374:	30001620 	andcc	r1, r0, r0, lsr #12
30001378:	30001620 	andcc	r1, r0, r0, lsr #12
3000137c:	30001620 	andcc	r1, r0, r0, lsr #12
30001380:	30001620 	andcc	r1, r0, r0, lsr #12
30001384:	30001620 	andcc	r1, r0, r0, lsr #12
30001388:	30001620 	andcc	r1, r0, r0, lsr #12
3000138c:	30001620 	andcc	r1, r0, r0, lsr #12
30001390:	30001620 	andcc	r1, r0, r0, lsr #12
30001394:	30001620 	andcc	r1, r0, r0, lsr #12
30001398:	30001620 	andcc	r1, r0, r0, lsr #12
3000139c:	30001620 	andcc	r1, r0, r0, lsr #12
300013a0:	30001620 	andcc	r1, r0, r0, lsr #12
300013a4:	30001620 	andcc	r1, r0, r0, lsr #12
300013a8:	30001620 	andcc	r1, r0, r0, lsr #12
300013ac:	30001620 	andcc	r1, r0, r0, lsr #12
300013b0:	30001620 	andcc	r1, r0, r0, lsr #12
300013b4:	30001620 	andcc	r1, r0, r0, lsr #12
300013b8:	30001620 	andcc	r1, r0, r0, lsr #12
300013bc:	30001620 	andcc	r1, r0, r0, lsr #12
300013c0:	30001620 	andcc	r1, r0, r0, lsr #12
300013c4:	30001620 	andcc	r1, r0, r0, lsr #12
300013c8:	30001620 	andcc	r1, r0, r0, lsr #12
300013cc:	30001620 	andcc	r1, r0, r0, lsr #12
300013d0:	30001620 	andcc	r1, r0, r0, lsr #12
300013d4:	30001620 	andcc	r1, r0, r0, lsr #12
300013d8:	30001620 	andcc	r1, r0, r0, lsr #12
300013dc:	30001620 	andcc	r1, r0, r0, lsr #12
300013e0:	30001620 	andcc	r1, r0, r0, lsr #12
300013e4:	30001620 	andcc	r1, r0, r0, lsr #12
300013e8:	30001620 	andcc	r1, r0, r0, lsr #12
300013ec:	30001620 	andcc	r1, r0, r0, lsr #12
300013f0:	30001620 	andcc	r1, r0, r0, lsr #12
300013f4:	30001620 	andcc	r1, r0, r0, lsr #12
300013f8:	30001620 	andcc	r1, r0, r0, lsr #12
300013fc:	30001620 	andcc	r1, r0, r0, lsr #12
30001400:	30001620 	andcc	r1, r0, r0, lsr #12
30001404:	30001620 	andcc	r1, r0, r0, lsr #12
30001408:	30001620 	andcc	r1, r0, r0, lsr #12
3000140c:	30001620 	andcc	r1, r0, r0, lsr #12
30001410:	30001620 	andcc	r1, r0, r0, lsr #12
30001414:	30001620 	andcc	r1, r0, r0, lsr #12
30001418:	30001620 	andcc	r1, r0, r0, lsr #12
3000141c:	30001620 	andcc	r1, r0, r0, lsr #12
30001420:	30001620 	andcc	r1, r0, r0, lsr #12
30001424:	30001620 	andcc	r1, r0, r0, lsr #12
30001428:	30001620 	andcc	r1, r0, r0, lsr #12
3000142c:	30001620 	andcc	r1, r0, r0, lsr #12
30001430:	30001620 	andcc	r1, r0, r0, lsr #12
30001434:	30001620 	andcc	r1, r0, r0, lsr #12
30001438:	30001608 	andcc	r1, r0, r8, lsl #12
3000143c:	30001620 	andcc	r1, r0, r0, lsr #12
30001440:	30001620 	andcc	r1, r0, r0, lsr #12
30001444:	30001620 	andcc	r1, r0, r0, lsr #12
30001448:	30001620 	andcc	r1, r0, r0, lsr #12
3000144c:	30001620 	andcc	r1, r0, r0, lsr #12
30001450:	30001620 	andcc	r1, r0, r0, lsr #12
30001454:	30001620 	andcc	r1, r0, r0, lsr #12
30001458:	30001620 	andcc	r1, r0, r0, lsr #12
3000145c:	30001620 	andcc	r1, r0, r0, lsr #12
30001460:	30001620 	andcc	r1, r0, r0, lsr #12
30001464:	30001748 	andcc	r1, r0, r8, asr #14
30001468:	30001590 	mulcc	r0, r0, r5
3000146c:	30001620 	andcc	r1, r0, r0, lsr #12
30001470:	30001620 	andcc	r1, r0, r0, lsr #12
30001474:	30001620 	andcc	r1, r0, r0, lsr #12
30001478:	30001620 	andcc	r1, r0, r0, lsr #12
3000147c:	30001590 	mulcc	r0, r0, r5
30001480:	30001620 	andcc	r1, r0, r0, lsr #12
30001484:	30001620 	andcc	r1, r0, r0, lsr #12
30001488:	30001620 	andcc	r1, r0, r0, lsr #12
3000148c:	30001620 	andcc	r1, r0, r0, lsr #12
30001490:	30001738 	andcc	r1, r0, r8, lsr r7
30001494:	30001730 	andcc	r1, r0, r0, lsr r7
30001498:	30001708 	andcc	r1, r0, r8, lsl #14
3000149c:	30001620 	andcc	r1, r0, r0, lsr #12
300014a0:	30001620 	andcc	r1, r0, r0, lsr #12
300014a4:	30001658 	andcc	r1, r0, r8, asr r6
300014a8:	30001620 	andcc	r1, r0, r0, lsr #12
300014ac:	30001594 	mulcc	r0, r4, r5
300014b0:	30001620 	andcc	r1, r0, r0, lsr #12
300014b4:	30001620 	andcc	r1, r0, r0, lsr #12
300014b8:	3000160c 	andcc	r1, r0, ip, lsl #12
300014bc:	e3855010 	orr	r5, r5, #16	; 0x10
300014c0:	eaffff74 	b	30001298 <vsnprintf+0xd4>
300014c4:	e3855004 	orr	r5, r5, #4	; 0x4
300014c8:	eaffff72 	b	30001298 <vsnprintf+0xd4>
300014cc:	e3855020 	orr	r5, r5, #32	; 0x20
300014d0:	eaffff70 	b	30001298 <vsnprintf+0xd4>
300014d4:	e3855008 	orr	r5, r5, #8	; 0x8
300014d8:	eaffff6e 	b	30001298 <vsnprintf+0xd4>
300014dc:	e4dc2001 	ldrb	r2, [ip], #1
300014e0:	e352006c 	cmp	r2, #108	; 0x6c
300014e4:	e58dc014 	str	ip, [sp, #20]
300014e8:	1affff99 	bne	30001354 <.text+0x1354>
300014ec:	e5dc3000 	ldrb	r3, [ip]
300014f0:	e353006c 	cmp	r3, #108	; 0x6c
300014f4:	028cc001 	addeq	ip, ip, #1	; 0x1
300014f8:	02422020 	subeq	r2, r2, #32	; 0x20
300014fc:	058dc014 	streq	ip, [sp, #20]
30001500:	eaffff93 	b	30001354 <.text+0x1354>
30001504:	e28d0014 	add	r0, sp, #20	; 0x14
30001508:	ebfffe5f 	bl	30000e8c <skip_atoi>
3000150c:	e59dc014 	ldr	ip, [sp, #20]
30001510:	e5dc3000 	ldrb	r3, [ip]
30001514:	e353002e 	cmp	r3, #46	; 0x2e
30001518:	e1a08000 	mov	r8, r0
3000151c:	e3e0b000 	mvn	fp, #0	; 0x0
30001520:	1affff80 	bne	30001328 <.text+0x1328>
30001524:	e28cc001 	add	ip, ip, #1	; 0x1
30001528:	e58dc014 	str	ip, [sp, #20]
3000152c:	e5dc2000 	ldrb	r2, [ip]
30001530:	e7d63002 	ldrb	r3, [r6, r2]
30001534:	e3130004 	tst	r3, #4	; 0x4
30001538:	1a00000f 	bne	3000157c <.text+0x157c>
3000153c:	e352002a 	cmp	r2, #42	; 0x2a
30001540:	13a0b000 	movne	fp, #0	; 0x0
30001544:	1affff77 	bne	30001328 <.text+0x1328>
30001548:	e28cc001 	add	ip, ip, #1	; 0x1
3000154c:	e58dc014 	str	ip, [sp, #20]
30001550:	e499b004 	ldr	fp, [r9], #4
30001554:	e35b0000 	cmp	fp, #0	; 0x0
30001558:	b3a0b000 	movlt	fp, #0	; 0x0
3000155c:	eaffff71 	b	30001328 <.text+0x1328>
30001560:	e4998004 	ldr	r8, [r9], #4
30001564:	e3580000 	cmp	r8, #0	; 0x0
30001568:	e28cc001 	add	ip, ip, #1	; 0x1
3000156c:	b2688000 	rsblt	r8, r8, #0	; 0x0
30001570:	b3855010 	orrlt	r5, r5, #16	; 0x10
30001574:	e58dc014 	str	ip, [sp, #20]
30001578:	eaffff66 	b	30001318 <.text+0x1318>
3000157c:	e28d0014 	add	r0, sp, #20	; 0x14
30001580:	ebfffe41 	bl	30000e8c <skip_atoi>
30001584:	e59dc014 	ldr	ip, [sp, #20]
30001588:	e1a0b000 	mov	fp, r0
3000158c:	eafffff0 	b	30001554 <.text+0x1554>
30001590:	e3855002 	orr	r5, r5, #2	; 0x2
30001594:	e352004c 	cmp	r2, #76	; 0x4c
30001598:	0a00001e 	beq	30001618 <.text+0x1618>
3000159c:	e352006c 	cmp	r2, #108	; 0x6c
300015a0:	0a000007 	beq	300015c4 <.text+0x15c4>
300015a4:	e352007a 	cmp	r2, #122	; 0x7a
300015a8:	1352005a 	cmpne	r2, #90	; 0x5a
300015ac:	04993004 	ldreq	r3, [r9], #4
300015b0:	01a01003 	moveq	r1, r3
300015b4:	03a02000 	moveq	r2, #0	; 0x0
300015b8:	0a000007 	beq	300015dc <.text+0x15dc>
300015bc:	e3520068 	cmp	r2, #104	; 0x68
300015c0:	0a00007d 	beq	300017bc <.text+0x17bc>
300015c4:	e4993004 	ldr	r3, [r9], #4
300015c8:	e3150002 	tst	r5, #2	; 0x2
300015cc:	e1a01003 	mov	r1, r3
300015d0:	e3a02000 	mov	r2, #0	; 0x0
300015d4:	0a000000 	beq	300015dc <.text+0x15dc>
300015d8:	e1a02fc1 	mov	r2, r1, asr #31
300015dc:	e58de000 	str	lr, [sp]
300015e0:	e1a03002 	mov	r3, r2
300015e4:	e1a02001 	mov	r2, r1
300015e8:	e1a00004 	mov	r0, r4
300015ec:	e1a01007 	mov	r1, r7
300015f0:	e98d0900 	stmib	sp, {r8, fp}
300015f4:	e58d500c 	str	r5, [sp, #12]
300015f8:	ebfffe37 	bl	30000edc <number>
300015fc:	e1a04000 	mov	r4, r0
30001600:	e59dc014 	ldr	ip, [sp, #20]
30001604:	eaffff11 	b	30001250 <vsnprintf+0x8c>
30001608:	e3855040 	orr	r5, r5, #64	; 0x40
3000160c:	e352004c 	cmp	r2, #76	; 0x4c
30001610:	e3a0e010 	mov	lr, #16	; 0x10
30001614:	1affffe0 	bne	3000159c <.text+0x159c>
30001618:	e8b90006 	ldmia	r9!, {r1, r2}
3000161c:	eaffffee 	b	300015dc <.text+0x15dc>
30001620:	e1540007 	cmp	r4, r7
30001624:	93a03025 	movls	r3, #37	; 0x25
30001628:	95c43000 	strlsb	r3, [r4]
3000162c:	e2844001 	add	r4, r4, #1	; 0x1
30001630:	959dc014 	ldrls	ip, [sp, #20]
30001634:	e5dc3000 	ldrb	r3, [ip]
30001638:	e3530000 	cmp	r3, #0	; 0x0
3000163c:	024cc001 	subeq	ip, ip, #1	; 0x1
30001640:	0affff02 	beq	30001250 <vsnprintf+0x8c>
30001644:	eafffefc 	b	3000123c <vsnprintf+0x78>
30001648:	e1540007 	cmp	r4, r7
3000164c:	93a03025 	movls	r3, #37	; 0x25
30001650:	9afffefb 	bls	30001244 <vsnprintf+0x80>
30001654:	eafffefc 	b	3000124c <vsnprintf+0x88>
30001658:	e4996004 	ldr	r6, [r9], #4
3000165c:	e59f3188 	ldr	r3, [pc, #392]	; 300017ec <.text+0x17ec>
30001660:	e3560b01 	cmp	r6, #1024	; 0x400
30001664:	31a06003 	movcc	r6, r3
30001668:	e1a0100b 	mov	r1, fp
3000166c:	e1a00006 	mov	r0, r6
30001670:	ebfffc84 	bl	30000888 <strnlen>
30001674:	e3150010 	tst	r5, #16	; 0x10
30001678:	1a00000a 	bne	300016a8 <.text+0x16a8>
3000167c:	e1580000 	cmp	r8, r0
30001680:	e2488001 	sub	r8, r8, #1	; 0x1
30001684:	da000007 	ble	300016a8 <.text+0x16a8>
30001688:	e3a02020 	mov	r2, #32	; 0x20
3000168c:	e1540007 	cmp	r4, r7
30001690:	e1a03008 	mov	r3, r8
30001694:	95c42000 	strlsb	r2, [r4]
30001698:	e1530000 	cmp	r3, r0
3000169c:	e2488001 	sub	r8, r8, #1	; 0x1
300016a0:	e2844001 	add	r4, r4, #1	; 0x1
300016a4:	cafffff8 	bgt	3000168c <.text+0x168c>
300016a8:	e3a02000 	mov	r2, #0	; 0x0
300016ac:	e1520000 	cmp	r2, r0
300016b0:	aa000007 	bge	300016d4 <.text+0x16d4>
300016b4:	e1540007 	cmp	r4, r7
300016b8:	95d63000 	ldrlsb	r3, [r6]
300016bc:	e2822001 	add	r2, r2, #1	; 0x1
300016c0:	95c43000 	strlsb	r3, [r4]
300016c4:	e2866001 	add	r6, r6, #1	; 0x1
300016c8:	e1520000 	cmp	r2, r0
300016cc:	e2844001 	add	r4, r4, #1	; 0x1
300016d0:	bafffff7 	blt	300016b4 <.text+0x16b4>
300016d4:	e1580000 	cmp	r8, r0
300016d8:	e2488001 	sub	r8, r8, #1	; 0x1
300016dc:	daffffc7 	ble	30001600 <.text+0x1600>
300016e0:	e3a02020 	mov	r2, #32	; 0x20
300016e4:	e1540007 	cmp	r4, r7
300016e8:	e1a03008 	mov	r3, r8
300016ec:	95c42000 	strlsb	r2, [r4]
300016f0:	e1530000 	cmp	r3, r0
300016f4:	e2488001 	sub	r8, r8, #1	; 0x1
300016f8:	e2844001 	add	r4, r4, #1	; 0x1
300016fc:	cafffff8 	bgt	300016e4 <.text+0x16e4>
30001700:	e59dc014 	ldr	ip, [sp, #20]
30001704:	eafffed1 	b	30001250 <vsnprintf+0x8c>
30001708:	e4992004 	ldr	r2, [r9], #4
3000170c:	e3780001 	cmn	r8, #1	; 0x1
30001710:	e3a0c010 	mov	ip, #16	; 0x10
30001714:	03855001 	orreq	r5, r5, #1	; 0x1
30001718:	02888009 	addeq	r8, r8, #9	; 0x9
3000171c:	e1a00004 	mov	r0, r4
30001720:	e3a03000 	mov	r3, #0	; 0x0
30001724:	e1a01007 	mov	r1, r7
30001728:	e58dc000 	str	ip, [sp]
3000172c:	eaffffaf 	b	300015f0 <.text+0x15f0>
30001730:	e3a0e008 	mov	lr, #8	; 0x8
30001734:	eaffff96 	b	30001594 <.text+0x1594>
30001738:	e4992004 	ldr	r2, [r9], #4
3000173c:	e06a3004 	rsb	r3, sl, r4
30001740:	e5823000 	str	r3, [r2]
30001744:	eafffec1 	b	30001250 <vsnprintf+0x8c>
30001748:	e3150010 	tst	r5, #16	; 0x10
3000174c:	1a000009 	bne	30001778 <.text+0x1778>
30001750:	e2488001 	sub	r8, r8, #1	; 0x1
30001754:	e3580000 	cmp	r8, #0	; 0x0
30001758:	da000006 	ble	30001778 <.text+0x1778>
3000175c:	e3a03020 	mov	r3, #32	; 0x20
30001760:	e1540007 	cmp	r4, r7
30001764:	e2488001 	sub	r8, r8, #1	; 0x1
30001768:	95c43000 	strlsb	r3, [r4]
3000176c:	e3580000 	cmp	r8, #0	; 0x0
30001770:	e2844001 	add	r4, r4, #1	; 0x1
30001774:	cafffff9 	bgt	30001760 <.text+0x1760>
30001778:	e4993004 	ldr	r3, [r9], #4
3000177c:	e1540007 	cmp	r4, r7
30001780:	e20330ff 	and	r3, r3, #255	; 0xff
30001784:	e2488001 	sub	r8, r8, #1	; 0x1
30001788:	95c43000 	strlsb	r3, [r4]
3000178c:	e3580000 	cmp	r8, #0	; 0x0
30001790:	e2844001 	add	r4, r4, #1	; 0x1
30001794:	daffff99 	ble	30001600 <.text+0x1600>
30001798:	e3a03020 	mov	r3, #32	; 0x20
3000179c:	e1540007 	cmp	r4, r7
300017a0:	e2488001 	sub	r8, r8, #1	; 0x1
300017a4:	95c43000 	strlsb	r3, [r4]
300017a8:	e3580000 	cmp	r8, #0	; 0x0
300017ac:	e2844001 	add	r4, r4, #1	; 0x1
300017b0:	cafffff9 	bgt	3000179c <.text+0x179c>
300017b4:	e59dc014 	ldr	ip, [sp, #20]
300017b8:	eafffea4 	b	30001250 <vsnprintf+0x8c>
300017bc:	e4993004 	ldr	r3, [r9], #4
300017c0:	e1a03803 	mov	r3, r3, lsl #16
300017c4:	e1a01823 	mov	r1, r3, lsr #16
300017c8:	e3150002 	tst	r5, #2	; 0x2
300017cc:	e3a02000 	mov	r2, #0	; 0x0
300017d0:	11a03001 	movne	r3, r1
300017d4:	11a03803 	movne	r3, r3, lsl #16
300017d8:	11a01843 	movne	r1, r3, asr #16
300017dc:	1affff7d 	bne	300015d8 <.text+0x15d8>
300017e0:	eaffff7d 	b	300015dc <.text+0x15dc>
300017e4:	300032bc 	strcch	r3, [r0], -ip
300017e8:	300032c0 	andcc	r3, r0, r0, asr #5
300017ec:	300032b4 	strcch	r3, [r0], -r4

300017f0 <vscnprintf>:
300017f0:	e92d4010 	stmdb	sp!, {r4, lr}
300017f4:	e1a04001 	mov	r4, r1
300017f8:	ebfffe71 	bl	300011c4 <vsnprintf>
300017fc:	e1500004 	cmp	r0, r4
30001800:	e2444001 	sub	r4, r4, #1	; 0x1
30001804:	31a04000 	movcc	r4, r0
30001808:	e1a00004 	mov	r0, r4
3000180c:	e8bd8010 	ldmia	sp!, {r4, pc}

30001810 <snprintf>:
30001810:	e92d000c 	stmdb	sp!, {r2, r3}
30001814:	e52de004 	str	lr, [sp, #-4]!
30001818:	e59d2004 	ldr	r2, [sp, #4]
3000181c:	e28d3008 	add	r3, sp, #8	; 0x8
30001820:	ebfffe67 	bl	300011c4 <vsnprintf>
30001824:	e49de004 	ldr	lr, [sp], #4
30001828:	e28dd008 	add	sp, sp, #8	; 0x8
3000182c:	e1a0f00e 	mov	pc, lr

30001830 <scnprintf>:
30001830:	e92d000c 	stmdb	sp!, {r2, r3}
30001834:	e92d4010 	stmdb	sp!, {r4, lr}
30001838:	e59d2008 	ldr	r2, [sp, #8]
3000183c:	e1a04001 	mov	r4, r1
30001840:	e28d300c 	add	r3, sp, #12	; 0xc
30001844:	ebfffe5e 	bl	300011c4 <vsnprintf>
30001848:	e1500004 	cmp	r0, r4
3000184c:	e2444001 	sub	r4, r4, #1	; 0x1
30001850:	31a04000 	movcc	r4, r0
30001854:	e1a00004 	mov	r0, r4
30001858:	e8bd4010 	ldmia	sp!, {r4, lr}
3000185c:	e28dd008 	add	sp, sp, #8	; 0x8
30001860:	e1a0f00e 	mov	pc, lr

30001864 <vsprintf>:
30001864:	e1a03002 	mov	r3, r2
30001868:	e1a02001 	mov	r2, r1
3000186c:	e3e01102 	mvn	r1, #-2147483648	; 0x80000000
30001870:	eafffe53 	b	300011c4 <vsnprintf>

30001874 <sprintf>:
30001874:	e92d000e 	stmdb	sp!, {r1, r2, r3}
30001878:	e52de004 	str	lr, [sp, #-4]!
3000187c:	e59d1004 	ldr	r1, [sp, #4]
30001880:	e28d2008 	add	r2, sp, #8	; 0x8
30001884:	ebfffff6 	bl	30001864 <vsprintf>
30001888:	e49de004 	ldr	lr, [sp], #4
3000188c:	e28dd00c 	add	sp, sp, #12	; 0xc
30001890:	e1a0f00e 	mov	pc, lr

30001894 <vsscanf>:
30001894:	e92d45f0 	stmdb	sp!, {r4, r5, r6, r7, r8, sl, lr}
30001898:	e1a05002 	mov	r5, r2
3000189c:	e3a07000 	mov	r7, #0	; 0x0
300018a0:	e1a08000 	mov	r8, r0
300018a4:	e1a04000 	mov	r4, r0
300018a8:	e24dd008 	sub	sp, sp, #8	; 0x8
300018ac:	e58d1004 	str	r1, [sp, #4]
300018b0:	e5d12000 	ldrb	r2, [r1]
300018b4:	e1520007 	cmp	r2, r7
300018b8:	0a000022 	beq	30001948 <vsscanf+0xb4>
300018bc:	e5d03000 	ldrb	r3, [r0]
300018c0:	e1530007 	cmp	r3, r7
300018c4:	0a00001f 	beq	30001948 <vsscanf+0xb4>
300018c8:	e59fa6c4 	ldr	sl, [pc, #1732]	; 30001f94 <.text+0x1f94>
300018cc:	e7da3002 	ldrb	r3, [sl, r2]
300018d0:	e3130020 	tst	r3, #32	; 0x20
300018d4:	e1a0c00a 	mov	ip, sl
300018d8:	0a000011 	beq	30001924 <vsscanf+0x90>
300018dc:	e2810001 	add	r0, r1, #1	; 0x1
300018e0:	e58d0004 	str	r0, [sp, #4]
300018e4:	e1a01000 	mov	r1, r0
300018e8:	e2800001 	add	r0, r0, #1	; 0x1
300018ec:	e5503001 	ldrb	r3, [r0, #-1]
300018f0:	e7dc2003 	ldrb	r2, [ip, r3]
300018f4:	e3120020 	tst	r2, #32	; 0x20
300018f8:	1afffff8 	bne	300018e0 <vsscanf+0x4c>
300018fc:	e59fa690 	ldr	sl, [pc, #1680]	; 30001f94 <.text+0x1f94>
30001900:	e5d43000 	ldrb	r3, [r4]
30001904:	e7da2003 	ldrb	r2, [sl, r3]
30001908:	e3120020 	tst	r2, #32	; 0x20
3000190c:	e1a0000a 	mov	r0, sl
30001910:	0a000003 	beq	30001924 <vsscanf+0x90>
30001914:	e5f43001 	ldrb	r3, [r4, #1]!
30001918:	e7d02003 	ldrb	r2, [r0, r3]
3000191c:	e3120020 	tst	r2, #32	; 0x20
30001920:	1afffffb 	bne	30001914 <vsscanf+0x80>
30001924:	e5d12000 	ldrb	r2, [r1]
30001928:	e3520025 	cmp	r2, #37	; 0x25
3000192c:	13520000 	cmpne	r2, #0	; 0x0
30001930:	0a000007 	beq	30001954 <vsscanf+0xc0>
30001934:	e2811001 	add	r1, r1, #1	; 0x1
30001938:	e4d43001 	ldrb	r3, [r4], #1
3000193c:	e58d1004 	str	r1, [sp, #4]
30001940:	e1520003 	cmp	r2, r3
30001944:	0a00008d 	beq	30001b80 <.text+0x1b80>
30001948:	e1a00007 	mov	r0, r7
3000194c:	e28dd008 	add	sp, sp, #8	; 0x8
30001950:	e8bd85f0 	ldmia	sp!, {r4, r5, r6, r7, r8, sl, pc}
30001954:	e3520000 	cmp	r2, #0	; 0x0
30001958:	0afffffa 	beq	30001948 <vsscanf+0xb4>
3000195c:	e2811001 	add	r1, r1, #1	; 0x1
30001960:	e58d1004 	str	r1, [sp, #4]
30001964:	e5d13000 	ldrb	r3, [r1]
30001968:	e353002a 	cmp	r3, #42	; 0x2a
3000196c:	0a000089 	beq	30001b98 <.text+0x1b98>
30001970:	e7da3003 	ldrb	r3, [sl, r3]
30001974:	e3130004 	tst	r3, #4	; 0x4
30001978:	e3e00000 	mvn	r0, #0	; 0x0
3000197c:	1a0000a1 	bne	30001c08 <.text+0x1c08>
30001980:	e5d13000 	ldrb	r3, [r1]
30001984:	e353006c 	cmp	r3, #108	; 0x6c
30001988:	13530068 	cmpne	r3, #104	; 0x68
3000198c:	e3e0e000 	mvn	lr, #0	; 0x0
30001990:	1a000066 	bne	30001b30 <.text+0x1b30>
30001994:	e4d1e001 	ldrb	lr, [r1], #1
30001998:	e58d1004 	str	r1, [sp, #4]
3000199c:	e5d13000 	ldrb	r3, [r1]
300019a0:	e153000e 	cmp	r3, lr
300019a4:	0a000170 	beq	30001f6c <.text+0x1f6c>
300019a8:	e5d1c000 	ldrb	ip, [r1]
300019ac:	e35c0000 	cmp	ip, #0	; 0x0
300019b0:	e3a0200a 	mov	r2, #10	; 0xa
300019b4:	e3a06000 	mov	r6, #0	; 0x0
300019b8:	0affffe2 	beq	30001948 <vsscanf+0xb4>
300019bc:	e5d43000 	ldrb	r3, [r4]
300019c0:	e1530006 	cmp	r3, r6
300019c4:	0affffdf 	beq	30001948 <vsscanf+0xb4>
300019c8:	e2811001 	add	r1, r1, #1	; 0x1
300019cc:	e24c3025 	sub	r3, ip, #37	; 0x25
300019d0:	e58d1004 	str	r1, [sp, #4]
300019d4:	e3530053 	cmp	r3, #83	; 0x53
300019d8:	979ff103 	ldrls	pc, [pc, r3, lsl #2]
300019dc:	eaffffd9 	b	30001948 <vsscanf+0xb4>
300019e0:	30001df0 	strccd	r1, [r0], -r0
300019e4:	30001948 	andcc	r1, r0, r8, asr #18
300019e8:	30001948 	andcc	r1, r0, r8, asr #18
300019ec:	30001948 	andcc	r1, r0, r8, asr #18
300019f0:	30001948 	andcc	r1, r0, r8, asr #18
300019f4:	30001948 	andcc	r1, r0, r8, asr #18
300019f8:	30001948 	andcc	r1, r0, r8, asr #18
300019fc:	30001948 	andcc	r1, r0, r8, asr #18
30001a00:	30001948 	andcc	r1, r0, r8, asr #18
30001a04:	30001948 	andcc	r1, r0, r8, asr #18
30001a08:	30001948 	andcc	r1, r0, r8, asr #18
30001a0c:	30001948 	andcc	r1, r0, r8, asr #18
30001a10:	30001948 	andcc	r1, r0, r8, asr #18
30001a14:	30001948 	andcc	r1, r0, r8, asr #18
30001a18:	30001948 	andcc	r1, r0, r8, asr #18
30001a1c:	30001948 	andcc	r1, r0, r8, asr #18
30001a20:	30001948 	andcc	r1, r0, r8, asr #18
30001a24:	30001948 	andcc	r1, r0, r8, asr #18
30001a28:	30001948 	andcc	r1, r0, r8, asr #18
30001a2c:	30001948 	andcc	r1, r0, r8, asr #18
30001a30:	30001948 	andcc	r1, r0, r8, asr #18
30001a34:	30001948 	andcc	r1, r0, r8, asr #18
30001a38:	30001948 	andcc	r1, r0, r8, asr #18
30001a3c:	30001948 	andcc	r1, r0, r8, asr #18
30001a40:	30001948 	andcc	r1, r0, r8, asr #18
30001a44:	30001948 	andcc	r1, r0, r8, asr #18
30001a48:	30001948 	andcc	r1, r0, r8, asr #18
30001a4c:	30001948 	andcc	r1, r0, r8, asr #18
30001a50:	30001948 	andcc	r1, r0, r8, asr #18
30001a54:	30001948 	andcc	r1, r0, r8, asr #18
30001a58:	30001948 	andcc	r1, r0, r8, asr #18
30001a5c:	30001948 	andcc	r1, r0, r8, asr #18
30001a60:	30001948 	andcc	r1, r0, r8, asr #18
30001a64:	30001948 	andcc	r1, r0, r8, asr #18
30001a68:	30001948 	andcc	r1, r0, r8, asr #18
30001a6c:	30001948 	andcc	r1, r0, r8, asr #18
30001a70:	30001948 	andcc	r1, r0, r8, asr #18
30001a74:	30001948 	andcc	r1, r0, r8, asr #18
30001a78:	30001948 	andcc	r1, r0, r8, asr #18
30001a7c:	30001948 	andcc	r1, r0, r8, asr #18
30001a80:	30001948 	andcc	r1, r0, r8, asr #18
30001a84:	30001948 	andcc	r1, r0, r8, asr #18
30001a88:	30001948 	andcc	r1, r0, r8, asr #18
30001a8c:	30001948 	andcc	r1, r0, r8, asr #18
30001a90:	30001948 	andcc	r1, r0, r8, asr #18
30001a94:	30001948 	andcc	r1, r0, r8, asr #18
30001a98:	30001948 	andcc	r1, r0, r8, asr #18
30001a9c:	30001948 	andcc	r1, r0, r8, asr #18
30001aa0:	30001948 	andcc	r1, r0, r8, asr #18
30001aa4:	30001948 	andcc	r1, r0, r8, asr #18
30001aa8:	30001948 	andcc	r1, r0, r8, asr #18
30001aac:	30001de8 	andcc	r1, r0, r8, ror #27
30001ab0:	30001948 	andcc	r1, r0, r8, asr #18
30001ab4:	30001948 	andcc	r1, r0, r8, asr #18
30001ab8:	30001948 	andcc	r1, r0, r8, asr #18
30001abc:	30001948 	andcc	r1, r0, r8, asr #18
30001ac0:	30001948 	andcc	r1, r0, r8, asr #18
30001ac4:	30001948 	andcc	r1, r0, r8, asr #18
30001ac8:	30001948 	andcc	r1, r0, r8, asr #18
30001acc:	30001948 	andcc	r1, r0, r8, asr #18
30001ad0:	30001948 	andcc	r1, r0, r8, asr #18
30001ad4:	30001948 	andcc	r1, r0, r8, asr #18
30001ad8:	30001da4 	andcc	r1, r0, r4, lsr #27
30001adc:	30001c1c 	andcc	r1, r0, ip, lsl ip
30001ae0:	30001948 	andcc	r1, r0, r8, asr #18
30001ae4:	30001948 	andcc	r1, r0, r8, asr #18
30001ae8:	30001948 	andcc	r1, r0, r8, asr #18
30001aec:	30001948 	andcc	r1, r0, r8, asr #18
30001af0:	30001c18 	andcc	r1, r0, r8, lsl ip
30001af4:	30001948 	andcc	r1, r0, r8, asr #18
30001af8:	30001948 	andcc	r1, r0, r8, asr #18
30001afc:	30001948 	andcc	r1, r0, r8, asr #18
30001b00:	30001948 	andcc	r1, r0, r8, asr #18
30001b04:	30001dfc 	strccd	r1, [r0], -ip
30001b08:	30001de0 	andcc	r1, r0, r0, ror #27
30001b0c:	30001948 	andcc	r1, r0, r8, asr #18
30001b10:	30001948 	andcc	r1, r0, r8, asr #18
30001b14:	30001948 	andcc	r1, r0, r8, asr #18
30001b18:	30001d70 	andcc	r1, r0, r0, ror sp
30001b1c:	30001948 	andcc	r1, r0, r8, asr #18
30001b20:	30001c20 	andcc	r1, r0, r0, lsr #24
30001b24:	30001948 	andcc	r1, r0, r8, asr #18
30001b28:	30001948 	andcc	r1, r0, r8, asr #18
30001b2c:	30001de8 	andcc	r1, r0, r8, ror #27
30001b30:	e353004c 	cmp	r3, #76	; 0x4c
30001b34:	0affff96 	beq	30001994 <vsscanf+0x100>
30001b38:	e353005a 	cmp	r3, #90	; 0x5a
30001b3c:	0affff94 	beq	30001994 <vsscanf+0x100>
30001b40:	e353007a 	cmp	r3, #122	; 0x7a
30001b44:	1affff97 	bne	300019a8 <vsscanf+0x114>
30001b48:	eaffff91 	b	30001994 <vsscanf+0x100>
30001b4c:	e3560000 	cmp	r6, #0	; 0x0
30001b50:	0a0000ad 	beq	30001e0c <.text+0x1e0c>
30001b54:	e1a00004 	mov	r0, r4
30001b58:	e1a0100d 	mov	r1, sp
30001b5c:	e4954004 	ldr	r4, [r5], #4
30001b60:	ebfffc62 	bl	30000cf0 <simple_strtol>
30001b64:	e5840000 	str	r0, [r4]
30001b68:	e59d0000 	ldr	r0, [sp]
30001b6c:	e3500000 	cmp	r0, #0	; 0x0
30001b70:	e2877001 	add	r7, r7, #1	; 0x1
30001b74:	0affff73 	beq	30001948 <vsscanf+0xb4>
30001b78:	e59d1004 	ldr	r1, [sp, #4]
30001b7c:	e1a04000 	mov	r4, r0
30001b80:	e5d12000 	ldrb	r2, [r1]
30001b84:	e3520000 	cmp	r2, #0	; 0x0
30001b88:	0affff6e 	beq	30001948 <vsscanf+0xb4>
30001b8c:	e5d43000 	ldrb	r3, [r4]
30001b90:	e3530000 	cmp	r3, #0	; 0x0
30001b94:	eaffff4a 	b	300018c4 <vsscanf+0x30>
30001b98:	e59fa3f4 	ldr	sl, [pc, #1012]	; 30001f94 <.text+0x1f94>
30001b9c:	e7da3003 	ldrb	r3, [sl, r3]
30001ba0:	e3130020 	tst	r3, #32	; 0x20
30001ba4:	e1a0c00a 	mov	ip, sl
30001ba8:	1a000009 	bne	30001bd4 <.text+0x1bd4>
30001bac:	e2812001 	add	r2, r1, #1	; 0x1
30001bb0:	e58d2004 	str	r2, [sp, #4]
30001bb4:	e1a01002 	mov	r1, r2
30001bb8:	e2822001 	add	r2, r2, #1	; 0x1
30001bbc:	e5520001 	ldrb	r0, [r2, #-1]
30001bc0:	e7dc3000 	ldrb	r3, [ip, r0]
30001bc4:	e3130020 	tst	r3, #32	; 0x20
30001bc8:	1a000001 	bne	30001bd4 <.text+0x1bd4>
30001bcc:	e3500000 	cmp	r0, #0	; 0x0
30001bd0:	1afffff6 	bne	30001bb0 <.text+0x1bb0>
30001bd4:	e59fa3b8 	ldr	sl, [pc, #952]	; 30001f94 <.text+0x1f94>
30001bd8:	e5d42000 	ldrb	r2, [r4]
30001bdc:	e1a0000a 	mov	r0, sl
30001be0:	e7d03002 	ldrb	r3, [r0, r2]
30001be4:	e3130020 	tst	r3, #32	; 0x20
30001be8:	1affffe4 	bne	30001b80 <.text+0x1b80>
30001bec:	e3520000 	cmp	r2, #0	; 0x0
30001bf0:	0affffe2 	beq	30001b80 <.text+0x1b80>
30001bf4:	e5f42001 	ldrb	r2, [r4, #1]!
30001bf8:	e7d03002 	ldrb	r3, [r0, r2]
30001bfc:	e3130020 	tst	r3, #32	; 0x20
30001c00:	0afffff9 	beq	30001bec <.text+0x1bec>
30001c04:	eaffffdd 	b	30001b80 <.text+0x1b80>
30001c08:	e28d0004 	add	r0, sp, #4	; 0x4
30001c0c:	ebfffc9e 	bl	30000e8c <skip_atoi>
30001c10:	e59d1004 	ldr	r1, [sp, #4]
30001c14:	eaffff59 	b	30001980 <vsscanf+0xec>
30001c18:	e3a02000 	mov	r2, #0	; 0x0
30001c1c:	e3a06001 	mov	r6, #1	; 0x1
30001c20:	e59fa36c 	ldr	sl, [pc, #876]	; 30001f94 <.text+0x1f94>
30001c24:	e5d41000 	ldrb	r1, [r4]
30001c28:	e7da3001 	ldrb	r3, [sl, r1]
30001c2c:	e3130020 	tst	r3, #32	; 0x20
30001c30:	e1a0000a 	mov	r0, sl
30001c34:	0a000003 	beq	30001c48 <.text+0x1c48>
30001c38:	e5f41001 	ldrb	r1, [r4, #1]!
30001c3c:	e7d03001 	ldrb	r3, [r0, r1]
30001c40:	e3130020 	tst	r3, #32	; 0x20
30001c44:	1afffffb 	bne	30001c38 <.text+0x1c38>
30001c48:	e20110ff 	and	r1, r1, #255	; 0xff
30001c4c:	e351002d 	cmp	r1, #45	; 0x2d
30001c50:	13a03000 	movne	r3, #0	; 0x0
30001c54:	02063001 	andeq	r3, r6, #1	; 0x1
30001c58:	e3530000 	cmp	r3, #0	; 0x0
30001c5c:	15d41001 	ldrneb	r1, [r4, #1]
30001c60:	e3510000 	cmp	r1, #0	; 0x0
30001c64:	0affff37 	beq	30001948 <vsscanf+0xb4>
30001c68:	e3520010 	cmp	r2, #16	; 0x10
30001c6c:	0a000085 	beq	30001e88 <.text+0x1e88>
30001c70:	e352000a 	cmp	r2, #10	; 0xa
30001c74:	0a00008f 	beq	30001eb8 <.text+0x1eb8>
30001c78:	e3520008 	cmp	r2, #8	; 0x8
30001c7c:	0a000085 	beq	30001e98 <.text+0x1e98>
30001c80:	e3520000 	cmp	r2, #0	; 0x0
30001c84:	1a000002 	bne	30001c94 <.text+0x1c94>
30001c88:	e7da3001 	ldrb	r3, [sl, r1]
30001c8c:	e3130004 	tst	r3, #4	; 0x4
30001c90:	0affff2c 	beq	30001948 <vsscanf+0xb4>
30001c94:	e24e3048 	sub	r3, lr, #72	; 0x48
30001c98:	e3530032 	cmp	r3, #50	; 0x32
30001c9c:	979ff103 	ldrls	pc, [pc, r3, lsl #2]
30001ca0:	eaffffa9 	b	30001b4c <.text+0x1b4c>
30001ca4:	30001e68 	andcc	r1, r0, r8, ror #28
30001ca8:	30001b4c 	andcc	r1, r0, ip, asr #22
30001cac:	30001b4c 	andcc	r1, r0, ip, asr #22
30001cb0:	30001b4c 	andcc	r1, r0, ip, asr #22
30001cb4:	30001e48 	andcc	r1, r0, r8, asr #28
30001cb8:	30001b4c 	andcc	r1, r0, ip, asr #22
30001cbc:	30001b4c 	andcc	r1, r0, ip, asr #22
30001cc0:	30001b4c 	andcc	r1, r0, ip, asr #22
30001cc4:	30001b4c 	andcc	r1, r0, ip, asr #22
30001cc8:	30001b4c 	andcc	r1, r0, ip, asr #22
30001ccc:	30001b4c 	andcc	r1, r0, ip, asr #22
30001cd0:	30001b4c 	andcc	r1, r0, ip, asr #22
30001cd4:	30001b4c 	andcc	r1, r0, ip, asr #22
30001cd8:	30001b4c 	andcc	r1, r0, ip, asr #22
30001cdc:	30001b4c 	andcc	r1, r0, ip, asr #22
30001ce0:	30001b4c 	andcc	r1, r0, ip, asr #22
30001ce4:	30001b4c 	andcc	r1, r0, ip, asr #22
30001ce8:	30001b4c 	andcc	r1, r0, ip, asr #22
30001cec:	30001e0c 	andcc	r1, r0, ip, lsl #28
30001cf0:	30001b4c 	andcc	r1, r0, ip, asr #22
30001cf4:	30001b4c 	andcc	r1, r0, ip, asr #22
30001cf8:	30001b4c 	andcc	r1, r0, ip, asr #22
30001cfc:	30001b4c 	andcc	r1, r0, ip, asr #22
30001d00:	30001b4c 	andcc	r1, r0, ip, asr #22
30001d04:	30001b4c 	andcc	r1, r0, ip, asr #22
30001d08:	30001b4c 	andcc	r1, r0, ip, asr #22
30001d0c:	30001b4c 	andcc	r1, r0, ip, asr #22
30001d10:	30001b4c 	andcc	r1, r0, ip, asr #22
30001d14:	30001b4c 	andcc	r1, r0, ip, asr #22
30001d18:	30001b4c 	andcc	r1, r0, ip, asr #22
30001d1c:	30001b4c 	andcc	r1, r0, ip, asr #22
30001d20:	30001b4c 	andcc	r1, r0, ip, asr #22
30001d24:	30001e20 	andcc	r1, r0, r0, lsr #28
30001d28:	30001b4c 	andcc	r1, r0, ip, asr #22
30001d2c:	30001b4c 	andcc	r1, r0, ip, asr #22
30001d30:	30001b4c 	andcc	r1, r0, ip, asr #22
30001d34:	30001b4c 	andcc	r1, r0, ip, asr #22
30001d38:	30001b4c 	andcc	r1, r0, ip, asr #22
30001d3c:	30001b4c 	andcc	r1, r0, ip, asr #22
30001d40:	30001b4c 	andcc	r1, r0, ip, asr #22
30001d44:	30001b4c 	andcc	r1, r0, ip, asr #22
30001d48:	30001b4c 	andcc	r1, r0, ip, asr #22
30001d4c:	30001b4c 	andcc	r1, r0, ip, asr #22
30001d50:	30001b4c 	andcc	r1, r0, ip, asr #22
30001d54:	30001b4c 	andcc	r1, r0, ip, asr #22
30001d58:	30001b4c 	andcc	r1, r0, ip, asr #22
30001d5c:	30001b4c 	andcc	r1, r0, ip, asr #22
30001d60:	30001b4c 	andcc	r1, r0, ip, asr #22
30001d64:	30001b4c 	andcc	r1, r0, ip, asr #22
30001d68:	30001b4c 	andcc	r1, r0, ip, asr #22
30001d6c:	30001e0c 	andcc	r1, r0, ip, lsl #28
30001d70:	e59fa21c 	ldr	sl, [pc, #540]	; 30001f94 <.text+0x1f94>
30001d74:	e5d41000 	ldrb	r1, [r4]
30001d78:	e7da3001 	ldrb	r3, [sl, r1]
30001d7c:	e3700001 	cmn	r0, #1	; 0x1
30001d80:	e495c004 	ldr	ip, [r5], #4
30001d84:	03e00102 	mvneq	r0, #-2147483648	; 0x80000000
30001d88:	e1a0200a 	mov	r2, sl
30001d8c:	e3130020 	tst	r3, #32	; 0x20
30001d90:	0a00004c 	beq	30001ec8 <.text+0x1ec8>
30001d94:	e5f41001 	ldrb	r1, [r4, #1]!
30001d98:	e7d23001 	ldrb	r3, [r2, r1]
30001d9c:	e3130020 	tst	r3, #32	; 0x20
30001da0:	eafffffa 	b	30001d90 <.text+0x1d90>
30001da4:	e3700001 	cmn	r0, #1	; 0x1
30001da8:	e4953004 	ldr	r3, [r5], #4
30001dac:	e5d41000 	ldrb	r1, [r4]
30001db0:	03a00001 	moveq	r0, #1	; 0x1
30001db4:	e2400001 	sub	r0, r0, #1	; 0x1
30001db8:	e3500000 	cmp	r0, #0	; 0x0
30001dbc:	e4c31001 	strb	r1, [r3], #1
30001dc0:	e2844001 	add	r4, r4, #1	; 0x1
30001dc4:	da000002 	ble	30001dd4 <.text+0x1dd4>
30001dc8:	e5d41000 	ldrb	r1, [r4]
30001dcc:	e3510000 	cmp	r1, #0	; 0x0
30001dd0:	1afffff7 	bne	30001db4 <.text+0x1db4>
30001dd4:	e59d1004 	ldr	r1, [sp, #4]
30001dd8:	e2877001 	add	r7, r7, #1	; 0x1
30001ddc:	eaffff67 	b	30001b80 <.text+0x1b80>
30001de0:	e3a02008 	mov	r2, #8	; 0x8
30001de4:	eaffff8d 	b	30001c20 <.text+0x1c20>
30001de8:	e3a02010 	mov	r2, #16	; 0x10
30001dec:	eaffff8b 	b	30001c20 <.text+0x1c20>
30001df0:	e4d43001 	ldrb	r3, [r4], #1
30001df4:	e3530025 	cmp	r3, #37	; 0x25
30001df8:	eafffed1 	b	30001944 <vsscanf+0xb0>
30001dfc:	e4952004 	ldr	r2, [r5], #4
30001e00:	e0683004 	rsb	r3, r8, r4
30001e04:	e5823000 	str	r3, [r2]
30001e08:	eaffff5c 	b	30001b80 <.text+0x1b80>
30001e0c:	e1a00004 	mov	r0, r4
30001e10:	e1a0100d 	mov	r1, sp
30001e14:	e4954004 	ldr	r4, [r5], #4
30001e18:	ebfffb76 	bl	30000bf8 <simple_strtoul>
30001e1c:	eaffff50 	b	30001b64 <.text+0x1b64>
30001e20:	e3560000 	cmp	r6, #0	; 0x0
30001e24:	0a00004b 	beq	30001f58 <.text+0x1f58>
30001e28:	e1a00004 	mov	r0, r4
30001e2c:	e1a0100d 	mov	r1, sp
30001e30:	e4954004 	ldr	r4, [r5], #4
30001e34:	ebfffbad 	bl	30000cf0 <simple_strtol>
30001e38:	e1a03440 	mov	r3, r0, asr #8
30001e3c:	e5c43001 	strb	r3, [r4, #1]
30001e40:	e5c40000 	strb	r0, [r4]
30001e44:	eaffff47 	b	30001b68 <.text+0x1b68>
30001e48:	e3560000 	cmp	r6, #0	; 0x0
30001e4c:	0a00003c 	beq	30001f44 <.text+0x1f44>
30001e50:	e1a00004 	mov	r0, r4
30001e54:	e1a0100d 	mov	r1, sp
30001e58:	e4954004 	ldr	r4, [r5], #4
30001e5c:	ebfffbff 	bl	30000e60 <simple_strtoll>
30001e60:	e8840003 	stmia	r4, {r0, r1}
30001e64:	eaffff3f 	b	30001b68 <.text+0x1b68>
30001e68:	e3560000 	cmp	r6, #0	; 0x0
30001e6c:	0a00002e 	beq	30001f2c <.text+0x1f2c>
30001e70:	e1a00004 	mov	r0, r4
30001e74:	e1a0100d 	mov	r1, sp
30001e78:	e4954004 	ldr	r4, [r5], #4
30001e7c:	ebfffb9b 	bl	30000cf0 <simple_strtol>
30001e80:	e5c40000 	strb	r0, [r4]
30001e84:	eaffff37 	b	30001b68 <.text+0x1b68>
30001e88:	e7da3001 	ldrb	r3, [sl, r1]
30001e8c:	e3130044 	tst	r3, #68	; 0x44
30001e90:	1affff78 	bne	30001c78 <.text+0x1c78>
30001e94:	eafffeab 	b	30001948 <vsscanf+0xb4>
30001e98:	e7da3001 	ldrb	r3, [sl, r1]
30001e9c:	e1a03123 	mov	r3, r3, lsr #2
30001ea0:	e2233001 	eor	r3, r3, #1	; 0x1
30001ea4:	e3510037 	cmp	r1, #55	; 0x37
30001ea8:	83833001 	orrhi	r3, r3, #1	; 0x1
30001eac:	e3130001 	tst	r3, #1	; 0x1
30001eb0:	0affff77 	beq	30001c94 <.text+0x1c94>
30001eb4:	eafffea3 	b	30001948 <vsscanf+0xb4>
30001eb8:	e7da3001 	ldrb	r3, [sl, r1]
30001ebc:	e3130004 	tst	r3, #4	; 0x4
30001ec0:	1affff6e 	bne	30001c80 <.text+0x1c80>
30001ec4:	eafffe9f 	b	30001948 <vsscanf+0xb4>
30001ec8:	e20130ff 	and	r3, r1, #255	; 0xff
30001ecc:	e3530000 	cmp	r3, #0	; 0x0
30001ed0:	e1a02001 	mov	r2, r1
30001ed4:	0a000011 	beq	30001f20 <.text+0x1f20>
30001ed8:	e59fa0b4 	ldr	sl, [pc, #180]	; 30001f94 <.text+0x1f94>
30001edc:	e7da3003 	ldrb	r3, [sl, r3]
30001ee0:	e3130020 	tst	r3, #32	; 0x20
30001ee4:	e1a0100a 	mov	r1, sl
30001ee8:	1a00000c 	bne	30001f20 <.text+0x1f20>
30001eec:	e2400001 	sub	r0, r0, #1	; 0x1
30001ef0:	ea000008 	b	30001f18 <.text+0x1f18>
30001ef4:	e4cc2001 	strb	r2, [ip], #1
30001ef8:	e2400001 	sub	r0, r0, #1	; 0x1
30001efc:	e5f42001 	ldrb	r2, [r4, #1]!
30001f00:	e20230ff 	and	r3, r2, #255	; 0xff
30001f04:	e3530000 	cmp	r3, #0	; 0x0
30001f08:	0a000004 	beq	30001f20 <.text+0x1f20>
30001f0c:	e7d13003 	ldrb	r3, [r1, r3]
30001f10:	e3130020 	tst	r3, #32	; 0x20
30001f14:	1a000001 	bne	30001f20 <.text+0x1f20>
30001f18:	e3700001 	cmn	r0, #1	; 0x1
30001f1c:	1afffff4 	bne	30001ef4 <.text+0x1ef4>
30001f20:	e3a03000 	mov	r3, #0	; 0x0
30001f24:	e5cc3000 	strb	r3, [ip]
30001f28:	eaffffa9 	b	30001dd4 <.text+0x1dd4>
30001f2c:	e1a00004 	mov	r0, r4
30001f30:	e1a0100d 	mov	r1, sp
30001f34:	e4954004 	ldr	r4, [r5], #4
30001f38:	ebfffb2e 	bl	30000bf8 <simple_strtoul>
30001f3c:	e5c40000 	strb	r0, [r4]
30001f40:	eaffff08 	b	30001b68 <.text+0x1b68>
30001f44:	e1a00004 	mov	r0, r4
30001f48:	e1a0100d 	mov	r1, sp
30001f4c:	e4954004 	ldr	r4, [r5], #4
30001f50:	ebfffb70 	bl	30000d18 <simple_strtoull>
30001f54:	eaffffc1 	b	30001e60 <.text+0x1e60>
30001f58:	e1a00004 	mov	r0, r4
30001f5c:	e1a0100d 	mov	r1, sp
30001f60:	e4954004 	ldr	r4, [r5], #4
30001f64:	ebfffb23 	bl	30000bf8 <simple_strtoul>
30001f68:	eaffffb2 	b	30001e38 <.text+0x1e38>
30001f6c:	e35e0068 	cmp	lr, #104	; 0x68
30001f70:	02811001 	addeq	r1, r1, #1	; 0x1
30001f74:	024ee020 	subeq	lr, lr, #32	; 0x20
30001f78:	058d1004 	streq	r1, [sp, #4]
30001f7c:	0afffe89 	beq	300019a8 <vsscanf+0x114>
30001f80:	e35e006c 	cmp	lr, #108	; 0x6c
30001f84:	02811001 	addeq	r1, r1, #1	; 0x1
30001f88:	024ee020 	subeq	lr, lr, #32	; 0x20
30001f8c:	058d1004 	streq	r1, [sp, #4]
30001f90:	eafffe84 	b	300019a8 <vsscanf+0x114>
30001f94:	300032c0 	andcc	r3, r0, r0, asr #5

30001f98 <sscanf>:
30001f98:	e92d000e 	stmdb	sp!, {r1, r2, r3}
30001f9c:	e52de004 	str	lr, [sp, #-4]!
30001fa0:	e59d1004 	ldr	r1, [sp, #4]
30001fa4:	e28d2008 	add	r2, sp, #8	; 0x8
30001fa8:	ebfffe39 	bl	30001894 <vsscanf>
30001fac:	e49de004 	ldr	lr, [sp], #4
30001fb0:	e28dd00c 	add	sp, sp, #12	; 0xc
30001fb4:	e1a0f00e 	mov	pc, lr
	...

30001fc0 <__do_div64>:
30001fc0:	e254c001 	subs	ip, r4, #1	; 0x1
30001fc4:	9a00003f 	bls	300020c8 <__do_div64+0x108>
30001fc8:	e11c0004 	tst	ip, r4
30001fcc:	0a000028 	beq	30002074 <__do_div64+0xb4>
30001fd0:	e1510004 	cmp	r1, r4
30001fd4:	e3a03000 	mov	r3, #0	; 0x0
30001fd8:	3a00000c 	bcc	30002010 <__do_div64+0x50>
30001fdc:	e1a02004 	mov	r2, r4
30001fe0:	e3a0c001 	mov	ip, #1	; 0x1
30001fe4:	e3520102 	cmp	r2, #-2147483648	; 0x80000000
30001fe8:	31520001 	cmpcc	r2, r1
30001fec:	31a02082 	movcc	r2, r2, lsl #1
30001ff0:	31a0c08c 	movcc	ip, ip, lsl #1
30001ff4:	3afffffa 	bcc	30001fe4 <__do_div64+0x24>
30001ff8:	e1510002 	cmp	r1, r2
30001ffc:	2183300c 	orrcs	r3, r3, ip
30002000:	20511002 	subcss	r1, r1, r2
30002004:	11b0c0ac 	movnes	ip, ip, lsr #1
30002008:	e1a020a2 	mov	r2, r2, lsr #1
3000200c:	1afffff9 	bne	30001ff8 <__do_div64+0x38>
30002010:	e3510000 	cmp	r1, #0	; 0x0
30002014:	e3a02000 	mov	r2, #0	; 0x0
30002018:	01500004 	cmpeq	r0, r4
3000201c:	31a01000 	movcc	r1, r0
30002020:	31a0f00e 	movcc	pc, lr
30002024:	e3a0c102 	mov	ip, #-2147483648	; 0x80000000
30002028:	e1b00080 	movs	r0, r0, lsl #1
3000202c:	e0b11001 	adcs	r1, r1, r1
30002030:	0a000005 	beq	3000204c <__do_div64+0x8c>
30002034:	31510004 	cmpcc	r1, r4
30002038:	2182200c 	orrcs	r2, r2, ip
3000203c:	20411004 	subcs	r1, r1, r4
30002040:	e1b0c0ac 	movs	ip, ip, lsr #1
30002044:	1afffff7 	bne	30002028 <__do_div64+0x68>
30002048:	e1a0f00e 	mov	pc, lr
3000204c:	2afffff9 	bcs	30002038 <__do_div64+0x78>
30002050:	e3500000 	cmp	r0, #0	; 0x0
30002054:	01a0f00e 	moveq	pc, lr
30002058:	e1b00080 	movs	r0, r0, lsl #1
3000205c:	e1a0c0ac 	mov	ip, ip, lsr #1
30002060:	3afffffc 	bcc	30002058 <__do_div64+0x98>
30002064:	e1b0c0ac 	movs	ip, ip, lsr #1
30002068:	e3a01001 	mov	r1, #1	; 0x1
3000206c:	1affffed 	bne	30002028 <__do_div64+0x68>
30002070:	e1a0f00e 	mov	pc, lr
30002074:	e1a02004 	mov	r2, r4
30002078:	e3540801 	cmp	r4, #65536	; 0x10000
3000207c:	e3a0c000 	mov	ip, #0	; 0x0
30002080:	21a02822 	movcs	r2, r2, lsr #16
30002084:	23a0c010 	movcs	ip, #16	; 0x10
30002088:	e3520c01 	cmp	r2, #256	; 0x100
3000208c:	21a02422 	movcs	r2, r2, lsr #8
30002090:	228cc008 	addcs	ip, ip, #8	; 0x8
30002094:	e3520010 	cmp	r2, #16	; 0x10
30002098:	21a02222 	movcs	r2, r2, lsr #4
3000209c:	228cc004 	addcs	ip, ip, #4	; 0x4
300020a0:	e3520004 	cmp	r2, #4	; 0x4
300020a4:	828cc003 	addhi	ip, ip, #3	; 0x3
300020a8:	908cc0a2 	addls	ip, ip, r2, lsr #1
300020ac:	e1a03c31 	mov	r3, r1, lsr ip
300020b0:	e1a02c30 	mov	r2, r0, lsr ip
300020b4:	e26cc020 	rsb	ip, ip, #32	; 0x20
300020b8:	e1822c11 	orr	r2, r2, r1, lsl ip
300020bc:	e1a01c10 	mov	r1, r0, lsl ip
300020c0:	e1a01c31 	mov	r1, r1, lsr ip
300020c4:	e1a0f00e 	mov	pc, lr
300020c8:	01a02000 	moveq	r2, r0
300020cc:	01a03001 	moveq	r3, r1
300020d0:	03a01000 	moveq	r1, #0	; 0x0
300020d4:	01a0f00e 	moveq	pc, lr
300020d8:	e52de004 	str	lr, [sp, #-4]!
300020dc:	e3a02000 	mov	r2, #0	; 0x0
300020e0:	e3a03000 	mov	r3, #0	; 0x0
300020e4:	e3a01000 	mov	r1, #0	; 0x0
300020e8:	e49df004 	ldr	pc, [sp], #4
300020ec:	e1a00000 	nop			(mov r0,r0)

300020f0 <__muldi3>:
300020f0:	e00c0192 	mul	ip, r2, r1
300020f4:	e92d41f0 	stmdb	sp!, {r4, r5, r6, r7, r8, lr}
300020f8:	e02ec093 	mla	lr, r3, r0, ip
300020fc:	e1a08820 	mov	r8, r0, lsr #16
30002100:	e1a05822 	mov	r5, r2, lsr #16
30002104:	e1c07808 	bic	r7, r0, r8, lsl #16
30002108:	e1c26805 	bic	r6, r2, r5, lsl #16
3000210c:	e00c0697 	mul	ip, r7, r6
30002110:	e0060698 	mul	r6, r8, r6
30002114:	e0070795 	mul	r7, r5, r7
30002118:	e0050598 	mul	r5, r8, r5
3000211c:	e0967007 	adds	r7, r6, r7
30002120:	22855801 	addcs	r5, r5, #65536	; 0x10000
30002124:	e09cc807 	adds	ip, ip, r7, lsl #16
30002128:	e0a55827 	adc	r5, r5, r7, lsr #16
3000212c:	e1a0400c 	mov	r4, ip
30002130:	e1a01005 	mov	r1, r5
30002134:	e1a00004 	mov	r0, r4
30002138:	e08e1005 	add	r1, lr, r5
3000213c:	e8bd81f0 	ldmia	sp!, {r4, r5, r6, r7, r8, pc}

30002140 <__subdf3>:
30002140:	e2222102 	eor	r2, r2, #-2147483648	; 0x80000000

30002144 <__adddf3>:
30002144:	e1310003 	teq	r1, r3
30002148:	0020c002 	eoreq	ip, r0, r2
3000214c:	033c0102 	teqeq	ip, #-2147483648	; 0x80000000
30002150:	0a00009e 	beq	300023d0 <__adddf3+0x28c>
30002154:	e191c080 	orrs	ip, r1, r0, lsl #1
30002158:	01a01003 	moveq	r1, r3
3000215c:	01a00002 	moveq	r0, r2
30002160:	1193c082 	orrnes	ip, r3, r2, lsl #1
30002164:	01a0f00e 	moveq	pc, lr
30002168:	e92d4030 	stmdb	sp!, {r4, r5, lr}
3000216c:	e3a0c47f 	mov	ip, #2130706432	; 0x7f000000
30002170:	e38cc60f 	orr	ip, ip, #15728640	; 0xf00000
30002174:	e000400c 	and	r4, r0, ip
30002178:	e002500c 	and	r5, r2, ip
3000217c:	e134000c 	teq	r4, ip
30002180:	1135000c 	teqne	r5, ip
30002184:	0a00009c 	beq	300023fc <__adddf3+0x2b8>
30002188:	e0555004 	subs	r5, r5, r4
3000218c:	b2655000 	rsblt	r5, r5, #0	; 0x0
30002190:	da000006 	ble	300021b0 <__adddf3+0x6c>
30002194:	e0844005 	add	r4, r4, r5
30002198:	e0213003 	eor	r3, r1, r3
3000219c:	e0202002 	eor	r2, r0, r2
300021a0:	e0231001 	eor	r1, r3, r1
300021a4:	e0220000 	eor	r0, r2, r0
300021a8:	e0213003 	eor	r3, r1, r3
300021ac:	e0202002 	eor	r2, r0, r2
300021b0:	e3550636 	cmp	r5, #56623104	; 0x3600000
300021b4:	88bd8030 	ldmhiia	sp!, {r4, r5, pc}
300021b8:	e3100102 	tst	r0, #-2147483648	; 0x80000000
300021bc:	e1c0008c 	bic	r0, r0, ip, lsl #1
300021c0:	e3800601 	orr	r0, r0, #1048576	; 0x100000
300021c4:	0a000001 	beq	300021d0 <__adddf3+0x8c>
300021c8:	e2711000 	rsbs	r1, r1, #0	; 0x0
300021cc:	e2e00000 	rsc	r0, r0, #0	; 0x0
300021d0:	e3120102 	tst	r2, #-2147483648	; 0x80000000
300021d4:	e1c2208c 	bic	r2, r2, ip, lsl #1
300021d8:	e3822601 	orr	r2, r2, #1048576	; 0x100000
300021dc:	0a000001 	beq	300021e8 <__adddf3+0xa4>
300021e0:	e2733000 	rsbs	r3, r3, #0	; 0x0
300021e4:	e2e22000 	rsc	r2, r2, #0	; 0x0
300021e8:	e1340005 	teq	r4, r5
300021ec:	0a000071 	beq	300023b8 <__adddf3+0x274>
300021f0:	e3a0c000 	mov	ip, #0	; 0x0
300021f4:	e1b05a25 	movs	r5, r5, lsr #20
300021f8:	0a000013 	beq	3000224c <__adddf3+0x108>
300021fc:	e3340601 	teq	r4, #1048576	; 0x100000
30002200:	0a000004 	beq	30002218 <__adddf3+0xd4>
30002204:	e1b01081 	movs	r1, r1, lsl #1
30002208:	e0ac0080 	adc	r0, ip, r0, lsl #1
3000220c:	e2444601 	sub	r4, r4, #1048576	; 0x100000
30002210:	e2555001 	subs	r5, r5, #1	; 0x1
30002214:	0a00000c 	beq	3000224c <__adddf3+0x108>
30002218:	e275e020 	rsbs	lr, r5, #32	; 0x20
3000221c:	ba000004 	blt	30002234 <__adddf3+0xf0>
30002220:	e1a0ce13 	mov	ip, r3, lsl lr
30002224:	e1a03533 	mov	r3, r3, lsr r5
30002228:	e1833e12 	orr	r3, r3, r2, lsl lr
3000222c:	e1a02552 	mov	r2, r2, asr r5
30002230:	ea000005 	b	3000224c <__adddf3+0x108>
30002234:	e2455020 	sub	r5, r5, #32	; 0x20
30002238:	e28ee020 	add	lr, lr, #32	; 0x20
3000223c:	e3530001 	cmp	r3, #1	; 0x1
30002240:	e0acce12 	adc	ip, ip, r2, lsl lr
30002244:	e1a03552 	mov	r3, r2, asr r5
30002248:	e1a02042 	mov	r2, r2, asr #32
3000224c:	e0911003 	adds	r1, r1, r3
30002250:	e0a00002 	adc	r0, r0, r2
30002254:	e2105102 	ands	r5, r0, #-2147483648	; 0x80000000
30002258:	5a000002 	bpl	30002268 <__adddf3+0x124>
3000225c:	e27cc000 	rsbs	ip, ip, #0	; 0x0
30002260:	e2f11000 	rscs	r1, r1, #0	; 0x0
30002264:	e2e00000 	rsc	r0, r0, #0	; 0x0
30002268:	e3500601 	cmp	r0, #1048576	; 0x100000
3000226c:	3a000019 	bcc	300022d8 <__adddf3+0x194>
30002270:	e3500602 	cmp	r0, #2097152	; 0x200000
30002274:	3a00000b 	bcc	300022a8 <__adddf3+0x164>
30002278:	e3500501 	cmp	r0, #4194304	; 0x400000
3000227c:	3a000004 	bcc	30002294 <__adddf3+0x150>
30002280:	e1b000a0 	movs	r0, r0, lsr #1
30002284:	e1b01061 	movs	r1, r1, rrx
30002288:	e1b0c06c 	movs	ip, ip, rrx
3000228c:	238cc001 	orrcs	ip, ip, #1	; 0x1
30002290:	e2844601 	add	r4, r4, #1048576	; 0x100000
30002294:	e1b000a0 	movs	r0, r0, lsr #1
30002298:	e1b01061 	movs	r1, r1, rrx
3000229c:	e1b0c06c 	movs	ip, ip, rrx
300022a0:	238cc001 	orrcs	ip, ip, #1	; 0x1
300022a4:	e2844601 	add	r4, r4, #1048576	; 0x100000
300022a8:	e0911fac 	adds	r1, r1, ip, lsr #31
300022ac:	e2a00000 	adc	r0, r0, #0	; 0x0
300022b0:	e33c0102 	teq	ip, #-2147483648	; 0x80000000
300022b4:	03c11001 	biceq	r1, r1, #1	; 0x1
300022b8:	e3100602 	tst	r0, #2097152	; 0x200000
300022bc:	12844601 	addne	r4, r4, #1048576	; 0x100000
300022c0:	e294c601 	adds	ip, r4, #1048576	; 0x100000
300022c4:	4a000048 	bmi	300023ec <__adddf3+0x2a8>
300022c8:	e3c00603 	bic	r0, r0, #3145728	; 0x300000
300022cc:	e1800004 	orr	r0, r0, r4
300022d0:	e1800005 	orr	r0, r0, r5
300022d4:	e8bd8030 	ldmia	sp!, {r4, r5, pc}
300022d8:	e3300000 	teq	r0, #0	; 0x0
300022dc:	13e0300a 	mvnne	r3, #10	; 0xa
300022e0:	03a03015 	moveq	r3, #21	; 0x15
300022e4:	01a00001 	moveq	r0, r1
300022e8:	03a01000 	moveq	r1, #0	; 0x0
300022ec:	e1a02000 	mov	r2, r0
300022f0:	e1b0c820 	movs	ip, r0, lsr #16
300022f4:	01a02802 	moveq	r2, r2, lsl #16
300022f8:	02833010 	addeq	r3, r3, #16	; 0x10
300022fc:	e31204ff 	tst	r2, #-16777216	; 0xff000000
30002300:	01a02402 	moveq	r2, r2, lsl #8
30002304:	02833008 	addeq	r3, r3, #8	; 0x8
30002308:	e312020f 	tst	r2, #-268435456	; 0xf0000000
3000230c:	01a02202 	moveq	r2, r2, lsl #4
30002310:	02833004 	addeq	r3, r3, #4	; 0x4
30002314:	e3120103 	tst	r2, #-1073741824	; 0xc0000000
30002318:	01a02102 	moveq	r2, r2, lsl #2
3000231c:	02833002 	addeq	r3, r3, #2	; 0x2
30002320:	e3120102 	tst	r2, #-2147483648	; 0x80000000
30002324:	02833001 	addeq	r3, r3, #1	; 0x1
30002328:	e2532020 	subs	r2, r3, #32	; 0x20
3000232c:	aa000007 	bge	30002350 <__adddf3+0x20c>
30002330:	e292200c 	adds	r2, r2, #12	; 0xc
30002334:	da000004 	ble	3000234c <__adddf3+0x208>
30002338:	e282c014 	add	ip, r2, #20	; 0x14
3000233c:	e262200c 	rsb	r2, r2, #12	; 0xc
30002340:	e1a01c10 	mov	r1, r0, lsl ip
30002344:	e1a00230 	mov	r0, r0, lsr r2
30002348:	ea000004 	b	30002360 <__adddf3+0x21c>
3000234c:	e2822014 	add	r2, r2, #20	; 0x14
30002350:	d262c020 	rsble	ip, r2, #32	; 0x20
30002354:	e1a00210 	mov	r0, r0, lsl r2
30002358:	d1800c31 	orrle	r0, r0, r1, lsr ip
3000235c:	d1a01211 	movle	r1, r1, lsl r2
30002360:	e0544a03 	subs	r4, r4, r3, lsl #20
30002364:	caffffd7 	bgt	300022c8 <__adddf3+0x184>
30002368:	e1e04a44 	mvn	r4, r4, asr #20
3000236c:	e254401e 	subs	r4, r4, #30	; 0x1e
30002370:	aa00000d 	bge	300023ac <__adddf3+0x268>
30002374:	e294400c 	adds	r4, r4, #12	; 0xc
30002378:	ca000005 	bgt	30002394 <__adddf3+0x250>
3000237c:	e2844014 	add	r4, r4, #20	; 0x14
30002380:	e2642020 	rsb	r2, r4, #32	; 0x20
30002384:	e1a01431 	mov	r1, r1, lsr r4
30002388:	e1811210 	orr	r1, r1, r0, lsl r2
3000238c:	e1850430 	orr	r0, r5, r0, lsr r4
30002390:	e8bd8030 	ldmia	sp!, {r4, r5, pc}
30002394:	e264400c 	rsb	r4, r4, #12	; 0xc
30002398:	e2642020 	rsb	r2, r4, #32	; 0x20
3000239c:	e1a01231 	mov	r1, r1, lsr r2
300023a0:	e1811410 	orr	r1, r1, r0, lsl r4
300023a4:	e1a00005 	mov	r0, r5
300023a8:	e8bd8030 	ldmia	sp!, {r4, r5, pc}
300023ac:	e1a01430 	mov	r1, r0, lsr r4
300023b0:	e1a00005 	mov	r0, r5
300023b4:	e8bd8030 	ldmia	sp!, {r4, r5, pc}
300023b8:	e3340000 	teq	r4, #0	; 0x0
300023bc:	02200601 	eoreq	r0, r0, #1048576	; 0x100000
300023c0:	02844601 	addeq	r4, r4, #1048576	; 0x100000
300023c4:	e2222601 	eor	r2, r2, #1048576	; 0x100000
300023c8:	12455601 	subne	r5, r5, #1048576	; 0x100000
300023cc:	eaffff87 	b	300021f0 <__adddf3+0xac>
300023d0:	e24cc601 	sub	ip, ip, #1048576	; 0x100000
300023d4:	e000200c 	and	r2, r0, ip
300023d8:	e132000c 	teq	r2, ip
300023dc:	038c0702 	orreq	r0, ip, #524288	; 0x80000
300023e0:	13a00000 	movne	r0, #0	; 0x0
300023e4:	e3a01000 	mov	r1, #0	; 0x0
300023e8:	e1a0f00e 	mov	pc, lr
300023ec:	e385047f 	orr	r0, r5, #2130706432	; 0x7f000000
300023f0:	e380060f 	orr	r0, r0, #15728640	; 0xf00000
300023f4:	e3a01000 	mov	r1, #0	; 0x0
300023f8:	e8bd8030 	ldmia	sp!, {r4, r5, pc}
300023fc:	e134000c 	teq	r4, ip
30002400:	11a00002 	movne	r0, r2
30002404:	11a01003 	movne	r1, r3
30002408:	0135000c 	teqeq	r5, ip
3000240c:	18bd8030 	ldmneia	sp!, {r4, r5, pc}
30002410:	e1914600 	orrs	r4, r1, r0, lsl #12
30002414:	01934602 	orreqs	r4, r3, r2, lsl #12
30002418:	01300002 	teqeq	r0, r2
3000241c:	13850702 	orrne	r0, r5, #524288	; 0x80000
30002420:	13a01000 	movne	r1, #0	; 0x0
30002424:	e8bd8030 	ldmia	sp!, {r4, r5, pc}

30002428 <__floatunsidf>:
30002428:	e3300000 	teq	r0, #0	; 0x0
3000242c:	03a01000 	moveq	r1, #0	; 0x0
30002430:	01a0f00e 	moveq	pc, lr
30002434:	e92d4030 	stmdb	sp!, {r4, r5, lr}
30002438:	e3a04101 	mov	r4, #1073741824	; 0x40000000
3000243c:	e2844633 	add	r4, r4, #53477376	; 0x3300000
30002440:	e3a05000 	mov	r5, #0	; 0x0
30002444:	e1a01000 	mov	r1, r0
30002448:	e3a00000 	mov	r0, #0	; 0x0
3000244c:	eaffffa1 	b	300022d8 <__adddf3+0x194>

30002450 <__floatsidf>:
30002450:	e3300000 	teq	r0, #0	; 0x0
30002454:	03a01000 	moveq	r1, #0	; 0x0
30002458:	01a0f00e 	moveq	pc, lr
3000245c:	e92d4030 	stmdb	sp!, {r4, r5, lr}
30002460:	e3a04101 	mov	r4, #1073741824	; 0x40000000
30002464:	e2844633 	add	r4, r4, #53477376	; 0x3300000
30002468:	e2105102 	ands	r5, r0, #-2147483648	; 0x80000000
3000246c:	42600000 	rsbmi	r0, r0, #0	; 0x0
30002470:	e1a01000 	mov	r1, r0
30002474:	e3a00000 	mov	r0, #0	; 0x0
30002478:	eaffff96 	b	300022d8 <__adddf3+0x194>

3000247c <__extendsfdf2>:
3000247c:	e1b02080 	movs	r2, r0, lsl #1
30002480:	0a000007 	beq	300024a4 <__extendsfdf2+0x28>
30002484:	e1a001c2 	mov	r0, r2, asr #3
30002488:	e1a00060 	mov	r0, r0, rrx
3000248c:	e1a01e02 	mov	r1, r2, lsl #28
30002490:	e21224ff 	ands	r2, r2, #-16777216	; 0xff000000
30002494:	0a000005 	beq	300024b0 <__extendsfdf2+0x34>
30002498:	e33204ff 	teq	r2, #-16777216	; 0xff000000
3000249c:	1220030e 	eorne	r0, r0, #939524096	; 0x38000000
300024a0:	e1a0f00e 	mov	pc, lr
300024a4:	e1a00000 	nop			(mov r0,r0)
300024a8:	e3a01000 	mov	r1, #0	; 0x0
300024ac:	e1a0f00e 	mov	pc, lr
300024b0:	e92d4030 	stmdb	sp!, {r4, r5, lr}
300024b4:	e3a0430e 	mov	r4, #939524096	; 0x38000000
300024b8:	e2844601 	add	r4, r4, #1048576	; 0x100000
300024bc:	e2005102 	and	r5, r0, #-2147483648	; 0x80000000
300024c0:	e3c00102 	bic	r0, r0, #-2147483648	; 0x80000000
300024c4:	eaffff83 	b	300022d8 <__adddf3+0x194>

300024c8 <__muldf3>:
300024c8:	e92d4070 	stmdb	sp!, {r4, r5, r6, lr}
300024cc:	e3a0c47f 	mov	ip, #2130706432	; 0x7f000000
300024d0:	e38cc60f 	orr	ip, ip, #15728640	; 0xf00000
300024d4:	e000400c 	and	r4, r0, ip
300024d8:	e002500c 	and	r5, r2, ip
300024dc:	e134000c 	teq	r4, ip
300024e0:	1135000c 	teqne	r5, ip
300024e4:	0a0000a8 	beq	3000278c <__muldf3+0x2c4>
300024e8:	e1916080 	orrs	r6, r1, r0, lsl #1
300024ec:	11936082 	orrnes	r6, r3, r2, lsl #1
300024f0:	0a00005e 	beq	30002670 <__muldf3+0x1a8>
300024f4:	e1b040a4 	movs	r4, r4, lsr #1
300024f8:	13350000 	teqne	r5, #0	; 0x0
300024fc:	0a00008e 	beq	3000273c <__muldf3+0x274>
30002500:	e08440c5 	add	r4, r4, r5, asr #1
30002504:	e1300002 	teq	r0, r2
30002508:	43844902 	orrmi	r4, r4, #32768	; 0x8000
3000250c:	e1c0008c 	bic	r0, r0, ip, lsl #1
30002510:	e1c2208c 	bic	r2, r2, ip, lsl #1
30002514:	e3800601 	orr	r0, r0, #1048576	; 0x100000
30002518:	e3822601 	orr	r2, r2, #1048576	; 0x100000
3000251c:	e92d0f80 	stmdb	sp!, {r7, r8, r9, sl, fp}
30002520:	e1a07821 	mov	r7, r1, lsr #16
30002524:	e1a08823 	mov	r8, r3, lsr #16
30002528:	e1a09820 	mov	r9, r0, lsr #16
3000252c:	e1a0a822 	mov	sl, r2, lsr #16
30002530:	e1c11807 	bic	r1, r1, r7, lsl #16
30002534:	e1c33808 	bic	r3, r3, r8, lsl #16
30002538:	e1c00809 	bic	r0, r0, r9, lsl #16
3000253c:	e1c2280a 	bic	r2, r2, sl, lsl #16
30002540:	e00c0391 	mul	ip, r1, r3
30002544:	e00b0891 	mul	fp, r1, r8
30002548:	e3a0e000 	mov	lr, #0	; 0x0
3000254c:	e09cc80b 	adds	ip, ip, fp, lsl #16
30002550:	e0aee82b 	adc	lr, lr, fp, lsr #16
30002554:	e00b0397 	mul	fp, r7, r3
30002558:	e09cc80b 	adds	ip, ip, fp, lsl #16
3000255c:	e0aee82b 	adc	lr, lr, fp, lsr #16
30002560:	e00b0a91 	mul	fp, r1, sl
30002564:	e3a05000 	mov	r5, #0	; 0x0
30002568:	e09ee80b 	adds	lr, lr, fp, lsl #16
3000256c:	e0a5582b 	adc	r5, r5, fp, lsr #16
30002570:	e00b0297 	mul	fp, r7, r2
30002574:	e09ee80b 	adds	lr, lr, fp, lsl #16
30002578:	e0a5582b 	adc	r5, r5, fp, lsr #16
3000257c:	e00b0890 	mul	fp, r0, r8
30002580:	e09ee80b 	adds	lr, lr, fp, lsl #16
30002584:	e0a5582b 	adc	r5, r5, fp, lsr #16
30002588:	e00b0399 	mul	fp, r9, r3
3000258c:	e09ee80b 	adds	lr, lr, fp, lsl #16
30002590:	e0a5582b 	adc	r5, r5, fp, lsr #16
30002594:	e00b0a90 	mul	fp, r0, sl
30002598:	e0060a99 	mul	r6, r9, sl
3000259c:	e095580b 	adds	r5, r5, fp, lsl #16
300025a0:	e0a6682b 	adc	r6, r6, fp, lsr #16
300025a4:	e00b0299 	mul	fp, r9, r2
300025a8:	e095580b 	adds	r5, r5, fp, lsl #16
300025ac:	e0a6682b 	adc	r6, r6, fp, lsr #16
300025b0:	e00b0291 	mul	fp, r1, r2
300025b4:	e09ee00b 	adds	lr, lr, fp
300025b8:	e00b0a97 	mul	fp, r7, sl
300025bc:	e0b5500b 	adcs	r5, r5, fp
300025c0:	e00b0390 	mul	fp, r0, r3
300025c4:	e2a66000 	adc	r6, r6, #0	; 0x0
300025c8:	e09ee00b 	adds	lr, lr, fp
300025cc:	e00b0899 	mul	fp, r9, r8
300025d0:	e0b5500b 	adcs	r5, r5, fp
300025d4:	e00b0897 	mul	fp, r7, r8
300025d8:	e2a66000 	adc	r6, r6, #0	; 0x0
300025dc:	e09ee00b 	adds	lr, lr, fp
300025e0:	e00b0290 	mul	fp, r0, r2
300025e4:	e0b5500b 	adcs	r5, r5, fp
300025e8:	e2a66000 	adc	r6, r6, #0	; 0x0
300025ec:	e8bd0f80 	ldmia	sp!, {r7, r8, r9, sl, fp}
300025f0:	e33c0000 	teq	ip, #0	; 0x0
300025f4:	138ee001 	orrne	lr, lr, #1	; 0x1
300025f8:	e1a00804 	mov	r0, r4, lsl #16
300025fc:	e3c44902 	bic	r4, r4, #32768	; 0x8000
30002600:	e3160c02 	tst	r6, #512	; 0x200
30002604:	0a000004 	beq	3000261c <__muldf3+0x154>
30002608:	e2844702 	add	r4, r4, #524288	; 0x80000
3000260c:	e1b060a6 	movs	r6, r6, lsr #1
30002610:	e1b05065 	movs	r5, r5, rrx
30002614:	e1b0e06e 	movs	lr, lr, rrx
30002618:	238ee001 	orrcs	lr, lr, #1	; 0x1
3000261c:	e1800606 	orr	r0, r0, r6, lsl #12
30002620:	e1800a25 	orr	r0, r0, r5, lsr #20
30002624:	e1a01605 	mov	r1, r5, lsl #12
30002628:	e1811a2e 	orr	r1, r1, lr, lsr #20
3000262c:	e244473e 	sub	r4, r4, #16252928	; 0xf80000
30002630:	e254441f 	subs	r4, r4, #520093696	; 0x1f000000
30002634:	da000011 	ble	30002680 <__muldf3+0x1b8>
30002638:	e1b0e60e 	movs	lr, lr, lsl #12
3000263c:	5a000005 	bpl	30002658 <__muldf3+0x190>
30002640:	e2911001 	adds	r1, r1, #1	; 0x1
30002644:	e2a00000 	adc	r0, r0, #0	; 0x0
30002648:	e33e0102 	teq	lr, #-2147483648	; 0x80000000
3000264c:	03c11001 	biceq	r1, r1, #1	; 0x1
30002650:	e3100602 	tst	r0, #2097152	; 0x200000
30002654:	12844702 	addne	r4, r4, #524288	; 0x80000
30002658:	e294c702 	adds	ip, r4, #524288	; 0x80000
3000265c:	e31c0101 	tst	ip, #1073741824	; 0x40000000
30002660:	1a000055 	bne	300027bc <__muldf3+0x2f4>
30002664:	e3c00603 	bic	r0, r0, #3145728	; 0x300000
30002668:	e1800084 	orr	r0, r0, r4, lsl #1
3000266c:	e8bd8070 	ldmia	sp!, {r4, r5, r6, pc}
30002670:	e0200002 	eor	r0, r0, r2
30002674:	e2000102 	and	r0, r0, #-2147483648	; 0x80000000
30002678:	e3a01000 	mov	r1, #0	; 0x0
3000267c:	e8bd8070 	ldmia	sp!, {r4, r5, r6, pc}
30002680:	e374076a 	cmn	r4, #27787264	; 0x1a80000
30002684:	d3a01000 	movle	r1, #0	; 0x0
30002688:	d2000102 	andle	r0, r0, #-2147483648	; 0x80000000
3000268c:	d8bd8070 	ldmleia	sp!, {r4, r5, r6, pc}
30002690:	e1e049c4 	mvn	r4, r4, asr #19
30002694:	e254401e 	subs	r4, r4, #30	; 0x1e
30002698:	aa00001b 	bge	3000270c <__muldf3+0x244>
3000269c:	e294400c 	adds	r4, r4, #12	; 0xc
300026a0:	ca00000d 	bgt	300026dc <__muldf3+0x214>
300026a4:	e2844014 	add	r4, r4, #20	; 0x14
300026a8:	e2645020 	rsb	r5, r4, #32	; 0x20
300026ac:	e1a03511 	mov	r3, r1, lsl r5
300026b0:	e1a01431 	mov	r1, r1, lsr r4
300026b4:	e1811510 	orr	r1, r1, r0, lsl r5
300026b8:	e1b00080 	movs	r0, r0, lsl #1
300026bc:	e1a00430 	mov	r0, r0, lsr r4
300026c0:	e1a00060 	mov	r0, r0, rrx
300026c4:	e0911fa3 	adds	r1, r1, r3, lsr #31
300026c8:	e2a00000 	adc	r0, r0, #0	; 0x0
300026cc:	e33e0000 	teq	lr, #0	; 0x0
300026d0:	03330102 	teqeq	r3, #-2147483648	; 0x80000000
300026d4:	03c11001 	biceq	r1, r1, #1	; 0x1
300026d8:	e8bd8070 	ldmia	sp!, {r4, r5, r6, pc}
300026dc:	e264400c 	rsb	r4, r4, #12	; 0xc
300026e0:	e2645020 	rsb	r5, r4, #32	; 0x20
300026e4:	e1a03411 	mov	r3, r1, lsl r4
300026e8:	e1a01531 	mov	r1, r1, lsr r5
300026ec:	e1811410 	orr	r1, r1, r0, lsl r4
300026f0:	e2000102 	and	r0, r0, #-2147483648	; 0x80000000
300026f4:	e0911fa3 	adds	r1, r1, r3, lsr #31
300026f8:	e2a00000 	adc	r0, r0, #0	; 0x0
300026fc:	e33e0000 	teq	lr, #0	; 0x0
30002700:	03330102 	teqeq	r3, #-2147483648	; 0x80000000
30002704:	03c11001 	biceq	r1, r1, #1	; 0x1
30002708:	e8bd8070 	ldmia	sp!, {r4, r5, r6, pc}
3000270c:	e2645020 	rsb	r5, r4, #32	; 0x20
30002710:	e1a06511 	mov	r6, r1, lsl r5
30002714:	e1a03431 	mov	r3, r1, lsr r4
30002718:	e1833510 	orr	r3, r3, r0, lsl r5
3000271c:	e1a01430 	mov	r1, r0, lsr r4
30002720:	e2000102 	and	r0, r0, #-2147483648	; 0x80000000
30002724:	e1c11430 	bic	r1, r1, r0, lsr r4
30002728:	e0811fa3 	add	r1, r1, r3, lsr #31
3000272c:	e196600e 	orrs	r6, r6, lr
30002730:	03330102 	teqeq	r3, #-2147483648	; 0x80000000
30002734:	03c11001 	biceq	r1, r1, #1	; 0x1
30002738:	e8bd8070 	ldmia	sp!, {r4, r5, r6, pc}
3000273c:	e3a0e000 	mov	lr, #0	; 0x0
30002740:	e3340000 	teq	r4, #0	; 0x0
30002744:	1a000008 	bne	3000276c <__muldf3+0x2a4>
30002748:	e2006102 	and	r6, r0, #-2147483648	; 0x80000000
3000274c:	e1b01081 	movs	r1, r1, lsl #1
30002750:	e0ae0080 	adc	r0, lr, r0, lsl #1
30002754:	e3100601 	tst	r0, #1048576	; 0x100000
30002758:	02444702 	subeq	r4, r4, #524288	; 0x80000
3000275c:	0afffffa 	beq	3000274c <__muldf3+0x284>
30002760:	e1800006 	orr	r0, r0, r6
30002764:	e3350000 	teq	r5, #0	; 0x0
30002768:	1affff64 	bne	30002500 <__muldf3+0x38>
3000276c:	e2026102 	and	r6, r2, #-2147483648	; 0x80000000
30002770:	e1b03083 	movs	r3, r3, lsl #1
30002774:	e0ae2082 	adc	r2, lr, r2, lsl #1
30002778:	e3120601 	tst	r2, #1048576	; 0x100000
3000277c:	02455601 	subeq	r5, r5, #1048576	; 0x100000
30002780:	0afffffa 	beq	30002770 <__muldf3+0x2a8>
30002784:	e1822006 	orr	r2, r2, r6
30002788:	eaffff5c 	b	30002500 <__muldf3+0x38>
3000278c:	e1916080 	orrs	r6, r1, r0, lsl #1
30002790:	11936082 	orrnes	r6, r3, r2, lsl #1
30002794:	0a00000d 	beq	300027d0 <__muldf3+0x308>
30002798:	e134000c 	teq	r4, ip
3000279c:	1a000001 	bne	300027a8 <__muldf3+0x2e0>
300027a0:	e1916600 	orrs	r6, r1, r0, lsl #12
300027a4:	1a000009 	bne	300027d0 <__muldf3+0x308>
300027a8:	e135000c 	teq	r5, ip
300027ac:	1a000001 	bne	300027b8 <__muldf3+0x2f0>
300027b0:	e1936602 	orrs	r6, r3, r2, lsl #12
300027b4:	1a000005 	bne	300027d0 <__muldf3+0x308>
300027b8:	e0200002 	eor	r0, r0, r2
300027bc:	e2000102 	and	r0, r0, #-2147483648	; 0x80000000
300027c0:	e380047f 	orr	r0, r0, #2130706432	; 0x7f000000
300027c4:	e380060f 	orr	r0, r0, #15728640	; 0xf00000
300027c8:	e3a01000 	mov	r1, #0	; 0x0
300027cc:	e8bd8070 	ldmia	sp!, {r4, r5, r6, pc}
300027d0:	e3a0047f 	mov	r0, #2130706432	; 0x7f000000
300027d4:	e380073e 	orr	r0, r0, #16252928	; 0xf80000
300027d8:	e8bd8070 	ldmia	sp!, {r4, r5, r6, pc}

300027dc <__divdf3>:
300027dc:	e92d4070 	stmdb	sp!, {r4, r5, r6, lr}
300027e0:	e3a0c47f 	mov	ip, #2130706432	; 0x7f000000
300027e4:	e38cc60f 	orr	ip, ip, #15728640	; 0xf00000
300027e8:	e000400c 	and	r4, r0, ip
300027ec:	e002500c 	and	r5, r2, ip
300027f0:	e134000c 	teq	r4, ip
300027f4:	1135000c 	teqne	r5, ip
300027f8:	11916080 	orrnes	r6, r1, r0, lsl #1
300027fc:	11936082 	orrnes	r6, r3, r2, lsl #1
30002800:	0a00007e 	beq	30002a00 <__divdf3+0x224>
30002804:	e1b040a4 	movs	r4, r4, lsr #1
30002808:	13350000 	teqne	r5, #0	; 0x0
3000280c:	0a000067 	beq	300029b0 <__divdf3+0x1d4>
30002810:	e04440c5 	sub	r4, r4, r5, asr #1
30002814:	e020e002 	eor	lr, r0, r2
30002818:	e3a05201 	mov	r5, #268435456	; 0x10000000
3000281c:	e1a02602 	mov	r2, r2, lsl #12
30002820:	e1852222 	orr	r2, r5, r2, lsr #4
30002824:	e1822c23 	orr	r2, r2, r3, lsr #24
30002828:	e1b03403 	movs	r3, r3, lsl #8
3000282c:	e1a00600 	mov	r0, r0, lsl #12
30002830:	01320005 	teqeq	r2, r5
30002834:	0a00004d 	beq	30002970 <__divdf3+0x194>
30002838:	e1855220 	orr	r5, r5, r0, lsr #4
3000283c:	e1855c21 	orr	r5, r5, r1, lsr #24
30002840:	e1a06401 	mov	r6, r1, lsl #8
30002844:	e20e0102 	and	r0, lr, #-2147483648	; 0x80000000
30002848:	e1550002 	cmp	r5, r2
3000284c:	01560003 	cmpeq	r6, r3
30002850:	2a000002 	bcs	30002860 <__divdf3+0x84>
30002854:	e2444702 	sub	r4, r4, #524288	; 0x80000
30002858:	e1b020a2 	movs	r2, r2, lsr #1
3000285c:	e1a03063 	mov	r3, r3, rrx
30002860:	e284441f 	add	r4, r4, #520093696	; 0x1f000000
30002864:	e284473e 	add	r4, r4, #16252928	; 0xf80000
30002868:	e374076a 	cmn	r4, #27787264	; 0x1a80000
3000286c:	daffff80 	ble	30002674 <__muldf3+0x1ac>
30002870:	e15400ac 	cmp	r4, ip, lsr #1
30002874:	aaffffd0 	bge	300027bc <__muldf3+0x2f4>
30002878:	e0566003 	subs	r6, r6, r3
3000287c:	e0c55002 	sbc	r5, r5, r2
30002880:	e1b020a2 	movs	r2, r2, lsr #1
30002884:	e1a03063 	mov	r3, r3, rrx
30002888:	e3a01601 	mov	r1, #1048576	; 0x100000
3000288c:	e3a0c702 	mov	ip, #524288	; 0x80000
30002890:	e056e003 	subs	lr, r6, r3
30002894:	e0d5e002 	sbcs	lr, r5, r2
30002898:	20466003 	subcs	r6, r6, r3
3000289c:	21a0500e 	movcs	r5, lr
300028a0:	2181100c 	orrcs	r1, r1, ip
300028a4:	e1b020a2 	movs	r2, r2, lsr #1
300028a8:	e1a03063 	mov	r3, r3, rrx
300028ac:	e056e003 	subs	lr, r6, r3
300028b0:	e0d5e002 	sbcs	lr, r5, r2
300028b4:	20466003 	subcs	r6, r6, r3
300028b8:	21a0500e 	movcs	r5, lr
300028bc:	218110ac 	orrcs	r1, r1, ip, lsr #1
300028c0:	e1b020a2 	movs	r2, r2, lsr #1
300028c4:	e1a03063 	mov	r3, r3, rrx
300028c8:	e056e003 	subs	lr, r6, r3
300028cc:	e0d5e002 	sbcs	lr, r5, r2
300028d0:	20466003 	subcs	r6, r6, r3
300028d4:	21a0500e 	movcs	r5, lr
300028d8:	2181112c 	orrcs	r1, r1, ip, lsr #2
300028dc:	e1b020a2 	movs	r2, r2, lsr #1
300028e0:	e1a03063 	mov	r3, r3, rrx
300028e4:	e056e003 	subs	lr, r6, r3
300028e8:	e0d5e002 	sbcs	lr, r5, r2
300028ec:	20466003 	subcs	r6, r6, r3
300028f0:	21a0500e 	movcs	r5, lr
300028f4:	218111ac 	orrcs	r1, r1, ip, lsr #3
300028f8:	e195e006 	orrs	lr, r5, r6
300028fc:	0a00000d 	beq	30002938 <__divdf3+0x15c>
30002900:	e1a05205 	mov	r5, r5, lsl #4
30002904:	e1855e26 	orr	r5, r5, r6, lsr #28
30002908:	e1a06206 	mov	r6, r6, lsl #4
3000290c:	e1a02182 	mov	r2, r2, lsl #3
30002910:	e1822ea3 	orr	r2, r2, r3, lsr #29
30002914:	e1a03183 	mov	r3, r3, lsl #3
30002918:	e1b0c22c 	movs	ip, ip, lsr #4
3000291c:	1affffdb 	bne	30002890 <__divdf3+0xb4>
30002920:	e3100601 	tst	r0, #1048576	; 0x100000
30002924:	1a000006 	bne	30002944 <__divdf3+0x168>
30002928:	e1800001 	orr	r0, r0, r1
3000292c:	e3a01000 	mov	r1, #0	; 0x0
30002930:	e3a0c102 	mov	ip, #-2147483648	; 0x80000000
30002934:	eaffffd5 	b	30002890 <__divdf3+0xb4>
30002938:	e3100601 	tst	r0, #1048576	; 0x100000
3000293c:	01800001 	orreq	r0, r0, r1
30002940:	03a01000 	moveq	r1, #0	; 0x0
30002944:	e3540000 	cmp	r4, #0	; 0x0
30002948:	da000016 	ble	300029a8 <__divdf3+0x1cc>
3000294c:	e055c002 	subs	ip, r5, r2
30002950:	0056c003 	subeqs	ip, r6, r3
30002954:	e2b11000 	adcs	r1, r1, #0	; 0x0
30002958:	e2a00000 	adc	r0, r0, #0	; 0x0
3000295c:	e33c0000 	teq	ip, #0	; 0x0
30002960:	03c11001 	biceq	r1, r1, #1	; 0x1
30002964:	e3c00601 	bic	r0, r0, #1048576	; 0x100000
30002968:	e1800084 	orr	r0, r0, r4, lsl #1
3000296c:	e8bd8070 	ldmia	sp!, {r4, r5, r6, pc}
30002970:	e20ee102 	and	lr, lr, #-2147483648	; 0x80000000
30002974:	e18e0620 	orr	r0, lr, r0, lsr #12
30002978:	e284441f 	add	r4, r4, #520093696	; 0x1f000000
3000297c:	e284473e 	add	r4, r4, #16252928	; 0xf80000
30002980:	e15400ac 	cmp	r4, ip, lsr #1
30002984:	aaffff8c 	bge	300027bc <__muldf3+0x2f4>
30002988:	e3540000 	cmp	r4, #0	; 0x0
3000298c:	c1800084 	orrgt	r0, r0, r4, lsl #1
30002990:	c8bd8070 	ldmgtia	sp!, {r4, r5, r6, pc}
30002994:	e374076a 	cmn	r4, #27787264	; 0x1a80000
30002998:	daffff35 	ble	30002674 <__muldf3+0x1ac>
3000299c:	e3800601 	orr	r0, r0, #1048576	; 0x100000
300029a0:	e3a0e000 	mov	lr, #0	; 0x0
300029a4:	eaffff39 	b	30002690 <__muldf3+0x1c8>
300029a8:	e185e006 	orr	lr, r5, r6
300029ac:	eaffff37 	b	30002690 <__muldf3+0x1c8>
300029b0:	e3a0e000 	mov	lr, #0	; 0x0
300029b4:	e3340000 	teq	r4, #0	; 0x0
300029b8:	1a000008 	bne	300029e0 <__divdf3+0x204>
300029bc:	e2006102 	and	r6, r0, #-2147483648	; 0x80000000
300029c0:	e1b01081 	movs	r1, r1, lsl #1
300029c4:	e0ae0080 	adc	r0, lr, r0, lsl #1
300029c8:	e3100601 	tst	r0, #1048576	; 0x100000
300029cc:	02444702 	subeq	r4, r4, #524288	; 0x80000
300029d0:	0afffffa 	beq	300029c0 <__divdf3+0x1e4>
300029d4:	e1800006 	orr	r0, r0, r6
300029d8:	e3350000 	teq	r5, #0	; 0x0
300029dc:	1affff8b 	bne	30002810 <__divdf3+0x34>
300029e0:	e2026102 	and	r6, r2, #-2147483648	; 0x80000000
300029e4:	e1b03083 	movs	r3, r3, lsl #1
300029e8:	e0ae2082 	adc	r2, lr, r2, lsl #1
300029ec:	e3120601 	tst	r2, #1048576	; 0x100000
300029f0:	02455601 	subeq	r5, r5, #1048576	; 0x100000
300029f4:	0afffffa 	beq	300029e4 <__divdf3+0x208>
300029f8:	e1822006 	orr	r2, r2, r6
300029fc:	eaffff83 	b	30002810 <__divdf3+0x34>
30002a00:	e134000c 	teq	r4, ip
30002a04:	0135000c 	teqeq	r5, ip
30002a08:	0affff70 	beq	300027d0 <__muldf3+0x308>
30002a0c:	e134000c 	teq	r4, ip
30002a10:	1a000002 	bne	30002a20 <__divdf3+0x244>
30002a14:	e1914600 	orrs	r4, r1, r0, lsl #12
30002a18:	1affff6c 	bne	300027d0 <__muldf3+0x308>
30002a1c:	eaffff65 	b	300027b8 <__muldf3+0x2f0>
30002a20:	e135000c 	teq	r5, ip
30002a24:	1a000002 	bne	30002a34 <__divdf3+0x258>
30002a28:	e1935602 	orrs	r5, r3, r2, lsl #12
30002a2c:	1affff67 	bne	300027d0 <__muldf3+0x308>
30002a30:	eaffff0e 	b	30002670 <__muldf3+0x1a8>
30002a34:	e1914080 	orrs	r4, r1, r0, lsl #1
30002a38:	1affff5e 	bne	300027b8 <__muldf3+0x2f0>
30002a3c:	e1935082 	orrs	r5, r3, r2, lsl #1
30002a40:	1affff0a 	bne	30002670 <__muldf3+0x1a8>
30002a44:	eaffff61 	b	300027d0 <__muldf3+0x308>

30002a48 <__truncdfsf2>:
30002a48:	e1912080 	orrs	r2, r1, r0, lsl #1
30002a4c:	01a00062 	moveq	r0, r2, rrx
30002a50:	01a0f00e 	moveq	pc, lr
30002a54:	e3a0c47f 	mov	ip, #2130706432	; 0x7f000000
30002a58:	e38cc60f 	orr	ip, ip, #15728640	; 0xf00000
30002a5c:	e00c2000 	and	r2, ip, r0
30002a60:	e132000c 	teq	r2, ip
30002a64:	0a000013 	beq	30002ab8 <__truncdfsf2+0x70>
30002a68:	e1c0000c 	bic	r0, r0, ip
30002a6c:	e352030e 	cmp	r2, #939524096	; 0x38000000
30002a70:	9a000018 	bls	30002ad8 <__truncdfsf2+0x90>
30002a74:	e1b03ea1 	movs	r3, r1, lsr #29
30002a78:	e0a33180 	adc	r3, r3, r0, lsl #3
30002a7c:	e1a01181 	mov	r1, r1, lsl #3
30002a80:	e3310102 	teq	r1, #-2147483648	; 0x80000000
30002a84:	03c33001 	biceq	r3, r3, #1	; 0x1
30002a88:	e3130502 	tst	r3, #8388608	; 0x800000
30002a8c:	12822601 	addne	r2, r2, #1048576	; 0x100000
30002a90:	13c33502 	bicne	r3, r3, #8388608	; 0x800000
30002a94:	e3a0c101 	mov	ip, #1073741824	; 0x40000000
30002a98:	e38cc67f 	orr	ip, ip, #133169152	; 0x7f00000
30002a9c:	e152000c 	cmp	r2, ip
30002aa0:	2a000008 	bcs	30002ac8 <__truncdfsf2+0x80>
30002aa4:	e1b00080 	movs	r0, r0, lsl #1
30002aa8:	e1a02202 	mov	r2, r2, lsl #4
30002aac:	e1830062 	orr	r0, r3, r2, rrx
30002ab0:	e2200101 	eor	r0, r0, #1073741824	; 0x40000000
30002ab4:	e1a0f00e 	mov	pc, lr
30002ab8:	e1911600 	orrs	r1, r1, r0, lsl #12
30002abc:	13a0047f 	movne	r0, #2130706432	; 0x7f000000
30002ac0:	13800503 	orrne	r0, r0, #12582912	; 0xc00000
30002ac4:	11a0f00e 	movne	pc, lr
30002ac8:	e2000102 	and	r0, r0, #-2147483648	; 0x80000000
30002acc:	e380047f 	orr	r0, r0, #2130706432	; 0x7f000000
30002ad0:	e3800502 	orr	r0, r0, #8388608	; 0x800000
30002ad4:	e1a0f00e 	mov	pc, lr
30002ad8:	e25225da 	subs	r2, r2, #914358272	; 0x36800000
30002adc:	d2000102 	andle	r0, r0, #-2147483648	; 0x80000000
30002ae0:	d1a0f00e 	movle	pc, lr
30002ae4:	e3800601 	orr	r0, r0, #1048576	; 0x100000
30002ae8:	e1a02a22 	mov	r2, r2, lsr #20
30002aec:	e2622019 	rsb	r2, r2, #25	; 0x19
30002af0:	e3520014 	cmp	r2, #20	; 0x14
30002af4:	ca00000a 	bgt	30002b24 <__truncdfsf2+0xdc>
30002af8:	e262c020 	rsb	ip, r2, #32	; 0x20
30002afc:	e1a03c11 	mov	r3, r1, lsl ip
30002b00:	e1a01231 	mov	r1, r1, lsr r2
30002b04:	e1811c10 	orr	r1, r1, r0, lsl ip
30002b08:	e1b00080 	movs	r0, r0, lsl #1
30002b0c:	e1a00230 	mov	r0, r0, lsr r2
30002b10:	e1a00060 	mov	r0, r0, rrx
30002b14:	e3330000 	teq	r3, #0	; 0x0
30002b18:	13811001 	orrne	r1, r1, #1	; 0x1
30002b1c:	e3a0230e 	mov	r2, #939524096	; 0x38000000
30002b20:	eaffffd3 	b	30002a74 <__truncdfsf2+0x2c>
30002b24:	e2622020 	rsb	r2, r2, #32	; 0x20
30002b28:	e262c020 	rsb	ip, r2, #32	; 0x20
30002b2c:	e1a03211 	mov	r3, r1, lsl r2
30002b30:	e1a01c31 	mov	r1, r1, lsr ip
30002b34:	e1811210 	orr	r1, r1, r0, lsl r2
30002b38:	e2000102 	and	r0, r0, #-2147483648	; 0x80000000
30002b3c:	eafffff4 	b	30002b14 <__truncdfsf2+0xcc>

30002b40 <__subsf3>:
30002b40:	e2211102 	eor	r1, r1, #-2147483648	; 0x80000000

30002b44 <__addsf3>:
30002b44:	e0202001 	eor	r2, r0, r1
30002b48:	e3320102 	teq	r2, #-2147483648	; 0x80000000
30002b4c:	0a00005a 	beq	30002cbc <__addsf3+0x178>
30002b50:	e3d02102 	bics	r2, r0, #-2147483648	; 0x80000000
30002b54:	01a00001 	moveq	r0, r1
30002b58:	13d12102 	bicnes	r2, r1, #-2147483648	; 0x80000000
30002b5c:	01a0f00e 	moveq	pc, lr
30002b60:	e3a0c4ff 	mov	ip, #-16777216	; 0xff000000
30002b64:	e00020ac 	and	r2, r0, ip, lsr #1
30002b68:	e00130ac 	and	r3, r1, ip, lsr #1
30002b6c:	e13200ac 	teq	r2, ip, lsr #1
30002b70:	113300ac 	teqne	r3, ip, lsr #1
30002b74:	0a000059 	beq	30002ce0 <__addsf3+0x19c>
30002b78:	e0533002 	subs	r3, r3, r2
30002b7c:	c0822003 	addgt	r2, r2, r3
30002b80:	c0201001 	eorgt	r1, r0, r1
30002b84:	c0210000 	eorgt	r0, r1, r0
30002b88:	c0201001 	eorgt	r1, r0, r1
30002b8c:	b2633000 	rsblt	r3, r3, #0	; 0x0
30002b90:	e3530532 	cmp	r3, #209715200	; 0xc800000
30002b94:	81a0f00e 	movhi	pc, lr
30002b98:	e3100102 	tst	r0, #-2147483648	; 0x80000000
30002b9c:	e3800502 	orr	r0, r0, #8388608	; 0x800000
30002ba0:	e3c004ff 	bic	r0, r0, #-16777216	; 0xff000000
30002ba4:	12600000 	rsbne	r0, r0, #0	; 0x0
30002ba8:	e3110102 	tst	r1, #-2147483648	; 0x80000000
30002bac:	e3811502 	orr	r1, r1, #8388608	; 0x800000
30002bb0:	e3c114ff 	bic	r1, r1, #-16777216	; 0xff000000
30002bb4:	12611000 	rsbne	r1, r1, #0	; 0x0
30002bb8:	e1320003 	teq	r2, r3
30002bbc:	0a000038 	beq	30002ca4 <__addsf3+0x160>
30002bc0:	e1b03ba3 	movs	r3, r3, lsr #23
30002bc4:	13320502 	teqne	r2, #8388608	; 0x800000
30002bc8:	11a00080 	movne	r0, r0, lsl #1
30002bcc:	12422502 	subne	r2, r2, #8388608	; 0x800000
30002bd0:	12433001 	subne	r3, r3, #1	; 0x1
30002bd4:	e1a0c351 	mov	ip, r1, asr r3
30002bd8:	e2633020 	rsb	r3, r3, #32	; 0x20
30002bdc:	e1a01311 	mov	r1, r1, lsl r3
30002be0:	e080000c 	add	r0, r0, ip
30002be4:	e2103102 	ands	r3, r0, #-2147483648	; 0x80000000
30002be8:	5a000001 	bpl	30002bf4 <__addsf3+0xb0>
30002bec:	e2711000 	rsbs	r1, r1, #0	; 0x0
30002bf0:	e2e00000 	rsc	r0, r0, #0	; 0x0
30002bf4:	e3500502 	cmp	r0, #8388608	; 0x800000
30002bf8:	3a000014 	bcc	30002c50 <__addsf3+0x10c>
30002bfc:	e3500401 	cmp	r0, #16777216	; 0x1000000
30002c00:	3a000007 	bcc	30002c24 <__addsf3+0xe0>
30002c04:	e3500402 	cmp	r0, #33554432	; 0x2000000
30002c08:	3a000002 	bcc	30002c18 <__addsf3+0xd4>
30002c0c:	e1b000a0 	movs	r0, r0, lsr #1
30002c10:	e1a01061 	mov	r1, r1, rrx
30002c14:	e2822502 	add	r2, r2, #8388608	; 0x800000
30002c18:	e1b000a0 	movs	r0, r0, lsr #1
30002c1c:	e1a01061 	mov	r1, r1, rrx
30002c20:	e2822502 	add	r2, r2, #8388608	; 0x800000
30002c24:	e0800fa1 	add	r0, r0, r1, lsr #31
30002c28:	e3310102 	teq	r1, #-2147483648	; 0x80000000
30002c2c:	03c00001 	biceq	r0, r0, #1	; 0x1
30002c30:	e3100401 	tst	r0, #16777216	; 0x1000000
30002c34:	12822502 	addne	r2, r2, #8388608	; 0x800000
30002c38:	e352047f 	cmp	r2, #2130706432	; 0x7f000000
30002c3c:	8a000024 	bhi	30002cd4 <__addsf3+0x190>
30002c40:	e3c00506 	bic	r0, r0, #25165824	; 0x1800000
30002c44:	e1800002 	orr	r0, r0, r2
30002c48:	e1800003 	orr	r0, r0, r3
30002c4c:	e1a0f00e 	mov	pc, lr
30002c50:	e1b0c620 	movs	ip, r0, lsr #12
30002c54:	01a00600 	moveq	r0, r0, lsl #12
30002c58:	02422406 	subeq	r2, r2, #100663296	; 0x6000000
30002c5c:	e31008ff 	tst	r0, #16711680	; 0xff0000
30002c60:	01a00400 	moveq	r0, r0, lsl #8
30002c64:	02422301 	subeq	r2, r2, #67108864	; 0x4000000
30002c68:	e310060f 	tst	r0, #15728640	; 0xf00000
30002c6c:	01a00200 	moveq	r0, r0, lsl #4
30002c70:	02422402 	subeq	r2, r2, #33554432	; 0x2000000
30002c74:	e3100503 	tst	r0, #12582912	; 0xc00000
30002c78:	01a00100 	moveq	r0, r0, lsl #2
30002c7c:	02422401 	subeq	r2, r2, #16777216	; 0x1000000
30002c80:	e3100502 	tst	r0, #8388608	; 0x800000
30002c84:	01a00080 	moveq	r0, r0, lsl #1
30002c88:	02422502 	subeq	r2, r2, #8388608	; 0x800000
30002c8c:	e3520000 	cmp	r2, #0	; 0x0
30002c90:	caffffea 	bgt	30002c40 <__addsf3+0xfc>
30002c94:	e1e02bc2 	mvn	r2, r2, asr #23
30002c98:	e2822002 	add	r2, r2, #2	; 0x2
30002c9c:	e1830230 	orr	r0, r3, r0, lsr r2
30002ca0:	e1a0f00e 	mov	pc, lr
30002ca4:	e3320000 	teq	r2, #0	; 0x0
30002ca8:	02200502 	eoreq	r0, r0, #8388608	; 0x800000
30002cac:	02822502 	addeq	r2, r2, #8388608	; 0x800000
30002cb0:	e2211502 	eor	r1, r1, #8388608	; 0x800000
30002cb4:	12433502 	subne	r3, r3, #8388608	; 0x800000
30002cb8:	eaffffc0 	b	30002bc0 <__addsf3+0x7c>
30002cbc:	e3a0c4ff 	mov	ip, #-16777216	; 0xff000000
30002cc0:	e00020ac 	and	r2, r0, ip, lsr #1
30002cc4:	e13200ac 	teq	r2, ip, lsr #1
30002cc8:	01a0014c 	moveq	r0, ip, asr #2
30002ccc:	13a00000 	movne	r0, #0	; 0x0
30002cd0:	e1a0f00e 	mov	pc, lr
30002cd4:	e383047f 	orr	r0, r3, #2130706432	; 0x7f000000
30002cd8:	e3800502 	orr	r0, r0, #8388608	; 0x800000
30002cdc:	e1a0f00e 	mov	pc, lr
30002ce0:	e13200ac 	teq	r2, ip, lsr #1
30002ce4:	11a00001 	movne	r0, r1
30002ce8:	013300ac 	teqeq	r3, ip, lsr #1
30002cec:	11a0f00e 	movne	pc, lr
30002cf0:	e1b02480 	movs	r2, r0, lsl #9
30002cf4:	01b02481 	moveqs	r2, r1, lsl #9
30002cf8:	01300001 	teqeq	r0, r1
30002cfc:	13830501 	orrne	r0, r3, #4194304	; 0x400000
30002d00:	e1a0f00e 	mov	pc, lr

30002d04 <__floatunsisf>:
30002d04:	e3a03000 	mov	r3, #0	; 0x0
30002d08:	ea000001 	b	30002d14 <__floatsisf+0x8>

30002d0c <__floatsisf>:
30002d0c:	e2103102 	ands	r3, r0, #-2147483648	; 0x80000000
30002d10:	42600000 	rsbmi	r0, r0, #0	; 0x0
30002d14:	e3300000 	teq	r0, #0	; 0x0
30002d18:	01a0f00e 	moveq	pc, lr
30002d1c:	e3a01000 	mov	r1, #0	; 0x0
30002d20:	e3a0244b 	mov	r2, #1258291200	; 0x4b000000
30002d24:	e310033f 	tst	r0, #-67108864	; 0xfc000000
30002d28:	0affffb1 	beq	30002bf4 <__addsf3+0xb0>
30002d2c:	e310020f 	tst	r0, #-268435456	; 0xf0000000
30002d30:	11a01e00 	movne	r1, r0, lsl #28
30002d34:	11a00220 	movne	r0, r0, lsr #4
30002d38:	12822402 	addne	r2, r2, #33554432	; 0x2000000
30002d3c:	e3100303 	tst	r0, #201326592	; 0xc000000
30002d40:	0affffab 	beq	30002bf4 <__addsf3+0xb0>
30002d44:	e1a01121 	mov	r1, r1, lsr #2
30002d48:	e1811f00 	orr	r1, r1, r0, lsl #30
30002d4c:	e1a00120 	mov	r0, r0, lsr #2
30002d50:	e2822401 	add	r2, r2, #16777216	; 0x1000000
30002d54:	eaffffa6 	b	30002bf4 <__addsf3+0xb0>

30002d58 <__mulsf3>:
30002d58:	e3a0c4ff 	mov	ip, #-16777216	; 0xff000000
30002d5c:	e00020ac 	and	r2, r0, ip, lsr #1
30002d60:	e00130ac 	and	r3, r1, ip, lsr #1
30002d64:	e13200ac 	teq	r2, ip, lsr #1
30002d68:	113300ac 	teqne	r3, ip, lsr #1
30002d6c:	0a000053 	beq	30002ec0 <__mulsf3+0x168>
30002d70:	e3d0c102 	bics	ip, r0, #-2147483648	; 0x80000000
30002d74:	13d1c102 	bicnes	ip, r1, #-2147483648	; 0x80000000
30002d78:	0a000029 	beq	30002e24 <__mulsf3+0xcc>
30002d7c:	e1b020a2 	movs	r2, r2, lsr #1
30002d80:	13330000 	teqne	r3, #0	; 0x0
30002d84:	0a00003e 	beq	30002e84 <__mulsf3+0x12c>
30002d88:	e08220c3 	add	r2, r2, r3, asr #1
30002d8c:	e1300001 	teq	r0, r1
30002d90:	43822902 	orrmi	r2, r2, #32768	; 0x8000
30002d94:	e3c004ff 	bic	r0, r0, #-16777216	; 0xff000000
30002d98:	e3c114ff 	bic	r1, r1, #-16777216	; 0xff000000
30002d9c:	e3800502 	orr	r0, r0, #8388608	; 0x800000
30002da0:	e3811502 	orr	r1, r1, #8388608	; 0x800000
30002da4:	e92d0030 	stmdb	sp!, {r4, r5}
30002da8:	e1a04820 	mov	r4, r0, lsr #16
30002dac:	e1a05821 	mov	r5, r1, lsr #16
30002db0:	e3c008ff 	bic	r0, r0, #16711680	; 0xff0000
30002db4:	e3c118ff 	bic	r1, r1, #16711680	; 0xff0000
30002db8:	e00c0594 	mul	ip, r4, r5
30002dbc:	e0030190 	mul	r3, r0, r1
30002dc0:	e0000095 	mul	r0, r5, r0
30002dc4:	e0200194 	mla	r0, r4, r1, r0
30002dc8:	e0933800 	adds	r3, r3, r0, lsl #16
30002dcc:	e0acc820 	adc	ip, ip, r0, lsr #16
30002dd0:	e8bd0030 	ldmia	sp!, {r4, r5}
30002dd4:	e1a00802 	mov	r0, r2, lsl #16
30002dd8:	e3c22902 	bic	r2, r2, #32768	; 0x8000
30002ddc:	e31c0902 	tst	ip, #32768	; 0x8000
30002de0:	12822501 	addne	r2, r2, #4194304	; 0x400000
30002de4:	11b0c0ac 	movnes	ip, ip, lsr #1
30002de8:	11a03063 	movne	r3, r3, rrx
30002dec:	e252257f 	subs	r2, r2, #532676608	; 0x1fc00000
30002df0:	da00000e 	ble	30002e30 <__mulsf3+0xd8>
30002df4:	e1900ba3 	orrs	r0, r0, r3, lsr #23
30002df8:	e0a0048c 	adc	r0, r0, ip, lsl #9
30002dfc:	e1a03483 	mov	r3, r3, lsl #9
30002e00:	e3330102 	teq	r3, #-2147483648	; 0x80000000
30002e04:	03c00001 	biceq	r0, r0, #1	; 0x1
30002e08:	e3100401 	tst	r0, #16777216	; 0x1000000
30002e0c:	12822501 	addne	r2, r2, #4194304	; 0x400000
30002e10:	e35205ff 	cmp	r2, #1069547520	; 0x3fc00000
30002e14:	aa000037 	bge	30002ef8 <__mulsf3+0x1a0>
30002e18:	e3c00506 	bic	r0, r0, #25165824	; 0x1800000
30002e1c:	e1800082 	orr	r0, r0, r2, lsl #1
30002e20:	e1a0f00e 	mov	pc, lr
30002e24:	e0200001 	eor	r0, r0, r1
30002e28:	e2000102 	and	r0, r0, #-2147483648	; 0x80000000
30002e2c:	e1a0f00e 	mov	pc, lr
30002e30:	e3720406 	cmn	r2, #100663296	; 0x6000000
30002e34:	d1a0f00e 	movle	pc, lr
30002e38:	e1e01b42 	mvn	r1, r2, asr #22
30002e3c:	e2511007 	subs	r1, r1, #7	; 0x7
30002e40:	ca000007 	bgt	30002e64 <__mulsf3+0x10c>
30002e44:	e2811020 	add	r1, r1, #32	; 0x20
30002e48:	e1900133 	orrs	r0, r0, r3, lsr r1
30002e4c:	e2611020 	rsb	r1, r1, #32	; 0x20
30002e50:	e0a0011c 	adc	r0, r0, ip, lsl r1
30002e54:	e1a0c113 	mov	ip, r3, lsl r1
30002e58:	e33c0102 	teq	ip, #-2147483648	; 0x80000000
30002e5c:	03c00001 	biceq	r0, r0, #1	; 0x1
30002e60:	e1a0f00e 	mov	pc, lr
30002e64:	e190013c 	orrs	r0, r0, ip, lsr r1
30002e68:	e2a00000 	adc	r0, r0, #0	; 0x0
30002e6c:	e2611020 	rsb	r1, r1, #32	; 0x20
30002e70:	e1a0c11c 	mov	ip, ip, lsl r1
30002e74:	e3330000 	teq	r3, #0	; 0x0
30002e78:	033c0102 	teqeq	ip, #-2147483648	; 0x80000000
30002e7c:	03c00001 	biceq	r0, r0, #1	; 0x1
30002e80:	e1a0f00e 	mov	pc, lr
30002e84:	e3320000 	teq	r2, #0	; 0x0
30002e88:	e200c102 	and	ip, r0, #-2147483648	; 0x80000000
30002e8c:	01a00080 	moveq	r0, r0, lsl #1
30002e90:	03100502 	tsteq	r0, #8388608	; 0x800000
30002e94:	02422501 	subeq	r2, r2, #4194304	; 0x400000
30002e98:	0afffffb 	beq	30002e8c <__mulsf3+0x134>
30002e9c:	e180000c 	orr	r0, r0, ip
30002ea0:	e3330000 	teq	r3, #0	; 0x0
30002ea4:	e201c102 	and	ip, r1, #-2147483648	; 0x80000000
30002ea8:	01a01081 	moveq	r1, r1, lsl #1
30002eac:	03110502 	tsteq	r1, #8388608	; 0x800000
30002eb0:	02433502 	subeq	r3, r3, #8388608	; 0x800000
30002eb4:	0afffffb 	beq	30002ea8 <__mulsf3+0x150>
30002eb8:	e181100c 	orr	r1, r1, ip
30002ebc:	eaffffb1 	b	30002d88 <__mulsf3+0x30>
30002ec0:	e3300000 	teq	r0, #0	; 0x0
30002ec4:	13310000 	teqne	r1, #0	; 0x0
30002ec8:	13300102 	teqne	r0, #-2147483648	; 0x80000000
30002ecc:	13310102 	teqne	r1, #-2147483648	; 0x80000000
30002ed0:	0a00000c 	beq	30002f08 <__mulsf3+0x1b0>
30002ed4:	e13200ac 	teq	r2, ip, lsr #1
30002ed8:	1a000001 	bne	30002ee4 <__mulsf3+0x18c>
30002edc:	e1b02480 	movs	r2, r0, lsl #9
30002ee0:	1a000008 	bne	30002f08 <__mulsf3+0x1b0>
30002ee4:	e13300ac 	teq	r3, ip, lsr #1
30002ee8:	1a000001 	bne	30002ef4 <__mulsf3+0x19c>
30002eec:	e1b03481 	movs	r3, r1, lsl #9
30002ef0:	1a000004 	bne	30002f08 <__mulsf3+0x1b0>
30002ef4:	e0200001 	eor	r0, r0, r1
30002ef8:	e2000102 	and	r0, r0, #-2147483648	; 0x80000000
30002efc:	e380047f 	orr	r0, r0, #2130706432	; 0x7f000000
30002f00:	e3800502 	orr	r0, r0, #8388608	; 0x800000
30002f04:	e1a0f00e 	mov	pc, lr
30002f08:	e3a0047f 	mov	r0, #2130706432	; 0x7f000000
30002f0c:	e3800503 	orr	r0, r0, #12582912	; 0xc00000
30002f10:	e1a0f00e 	mov	pc, lr

30002f14 <__divsf3>:
30002f14:	e3a0c4ff 	mov	ip, #-16777216	; 0xff000000
30002f18:	e00020ac 	and	r2, r0, ip, lsr #1
30002f1c:	e00130ac 	and	r3, r1, ip, lsr #1
30002f20:	e13200ac 	teq	r2, ip, lsr #1
30002f24:	113300ac 	teqne	r3, ip, lsr #1
30002f28:	13d0c102 	bicnes	ip, r0, #-2147483648	; 0x80000000
30002f2c:	13d1c102 	bicnes	ip, r1, #-2147483648	; 0x80000000
30002f30:	0a00004c 	beq	30003068 <__divsf3+0x154>
30002f34:	e1b020a2 	movs	r2, r2, lsr #1
30002f38:	13330000 	teqne	r3, #0	; 0x0
30002f3c:	0a00003a 	beq	3000302c <__divsf3+0x118>
30002f40:	e04220c3 	sub	r2, r2, r3, asr #1
30002f44:	e020c001 	eor	ip, r0, r1
30002f48:	e3a03201 	mov	r3, #268435456	; 0x10000000
30002f4c:	e1b01481 	movs	r1, r1, lsl #9
30002f50:	e1a00480 	mov	r0, r0, lsl #9
30002f54:	0a000022 	beq	30002fe4 <__divsf3+0xd0>
30002f58:	e1831221 	orr	r1, r3, r1, lsr #4
30002f5c:	e1833220 	orr	r3, r3, r0, lsr #4
30002f60:	e20c0102 	and	r0, ip, #-2147483648	; 0x80000000
30002f64:	e1530001 	cmp	r3, r1
30002f68:	32422501 	subcc	r2, r2, #4194304	; 0x400000
30002f6c:	31a03083 	movcc	r3, r3, lsl #1
30002f70:	e282257f 	add	r2, r2, #532676608	; 0x1fc00000
30002f74:	e3720406 	cmn	r2, #100663296	; 0x6000000
30002f78:	d1a0f00e 	movle	pc, lr
30002f7c:	e35205ff 	cmp	r2, #1069547520	; 0x3fc00000
30002f80:	aaffffdc 	bge	30002ef8 <__mulsf3+0x1a0>
30002f84:	e3a0c502 	mov	ip, #8388608	; 0x800000
30002f88:	e1530001 	cmp	r3, r1
30002f8c:	20433001 	subcs	r3, r3, r1
30002f90:	2180000c 	orrcs	r0, r0, ip
30002f94:	e15300a1 	cmp	r3, r1, lsr #1
30002f98:	204330a1 	subcs	r3, r3, r1, lsr #1
30002f9c:	218000ac 	orrcs	r0, r0, ip, lsr #1
30002fa0:	e1530121 	cmp	r3, r1, lsr #2
30002fa4:	20433121 	subcs	r3, r3, r1, lsr #2
30002fa8:	2180012c 	orrcs	r0, r0, ip, lsr #2
30002fac:	e15301a1 	cmp	r3, r1, lsr #3
30002fb0:	204331a1 	subcs	r3, r3, r1, lsr #3
30002fb4:	218001ac 	orrcs	r0, r0, ip, lsr #3
30002fb8:	e1b03203 	movs	r3, r3, lsl #4
30002fbc:	11b0c22c 	movnes	ip, ip, lsr #4
30002fc0:	1afffff0 	bne	30002f88 <__divsf3+0x74>
30002fc4:	e3520000 	cmp	r2, #0	; 0x0
30002fc8:	da000012 	ble	30003018 <__divsf3+0x104>
30002fcc:	e1530001 	cmp	r3, r1
30002fd0:	22800001 	addcs	r0, r0, #1	; 0x1
30002fd4:	03c00001 	biceq	r0, r0, #1	; 0x1
30002fd8:	e3c00502 	bic	r0, r0, #8388608	; 0x800000
30002fdc:	e1800082 	orr	r0, r0, r2, lsl #1
30002fe0:	e1a0f00e 	mov	pc, lr
30002fe4:	e20cc102 	and	ip, ip, #-2147483648	; 0x80000000
30002fe8:	e18c04a0 	orr	r0, ip, r0, lsr #9
30002fec:	e282257f 	add	r2, r2, #532676608	; 0x1fc00000
30002ff0:	e35205ff 	cmp	r2, #1069547520	; 0x3fc00000
30002ff4:	aaffffbf 	bge	30002ef8 <__mulsf3+0x1a0>
30002ff8:	e3520000 	cmp	r2, #0	; 0x0
30002ffc:	c1800082 	orrgt	r0, r0, r2, lsl #1
30003000:	c1a0f00e 	movgt	pc, lr
30003004:	e3720406 	cmn	r2, #100663296	; 0x6000000
30003008:	d1a0000c 	movle	r0, ip
3000300c:	d1a0f00e 	movle	pc, lr
30003010:	e3800502 	orr	r0, r0, #8388608	; 0x800000
30003014:	e3a03000 	mov	r3, #0	; 0x0
30003018:	e3c0c102 	bic	ip, r0, #-2147483648	; 0x80000000
3000301c:	e2000102 	and	r0, r0, #-2147483648	; 0x80000000
30003020:	e1e01b42 	mvn	r1, r2, asr #22
30003024:	e2811002 	add	r1, r1, #2	; 0x2
30003028:	eaffff8d 	b	30002e64 <__mulsf3+0x10c>
3000302c:	e3320000 	teq	r2, #0	; 0x0
30003030:	e200c102 	and	ip, r0, #-2147483648	; 0x80000000
30003034:	01a00080 	moveq	r0, r0, lsl #1
30003038:	03100502 	tsteq	r0, #8388608	; 0x800000
3000303c:	02422501 	subeq	r2, r2, #4194304	; 0x400000
30003040:	0afffffb 	beq	30003034 <__divsf3+0x120>
30003044:	e180000c 	orr	r0, r0, ip
30003048:	e3330000 	teq	r3, #0	; 0x0
3000304c:	e201c102 	and	ip, r1, #-2147483648	; 0x80000000
30003050:	01a01081 	moveq	r1, r1, lsl #1
30003054:	03110502 	tsteq	r1, #8388608	; 0x800000
30003058:	02433502 	subeq	r3, r3, #8388608	; 0x800000
3000305c:	0afffffb 	beq	30003050 <__divsf3+0x13c>
30003060:	e181100c 	orr	r1, r1, ip
30003064:	eaffffb5 	b	30002f40 <__divsf3+0x2c>
30003068:	e3a0c4ff 	mov	ip, #-16777216	; 0xff000000
3000306c:	e13200ac 	teq	r2, ip, lsr #1
30003070:	013300ac 	teqeq	r3, ip, lsr #1
30003074:	0affffa3 	beq	30002f08 <__mulsf3+0x1b0>
30003078:	e13200ac 	teq	r2, ip, lsr #1
3000307c:	1a000002 	bne	3000308c <__divsf3+0x178>
30003080:	e1b02480 	movs	r2, r0, lsl #9
30003084:	1affff9f 	bne	30002f08 <__mulsf3+0x1b0>
30003088:	eaffff99 	b	30002ef4 <__mulsf3+0x19c>
3000308c:	e13300ac 	teq	r3, ip, lsr #1
30003090:	1a000002 	bne	300030a0 <__divsf3+0x18c>
30003094:	e1b03481 	movs	r3, r1, lsl #9
30003098:	1affff9a 	bne	30002f08 <__mulsf3+0x1b0>
3000309c:	eaffff60 	b	30002e24 <__mulsf3+0xcc>
300030a0:	e3d02102 	bics	r2, r0, #-2147483648	; 0x80000000
300030a4:	1affff92 	bne	30002ef4 <__mulsf3+0x19c>
300030a8:	e3d13102 	bics	r3, r1, #-2147483648	; 0x80000000
300030ac:	1affff5c 	bne	30002e24 <__mulsf3+0xcc>
300030b0:	eaffff94 	b	30002f08 <__mulsf3+0x1b0>

300030b4 <__fixsfsi>:
300030b4:	e1b00080 	movs	r0, r0, lsl #1
300030b8:	01a0f00e 	moveq	pc, lr
300030bc:	e1a01061 	mov	r1, r1, rrx
300030c0:	e20024ff 	and	r2, r0, #-16777216	; 0xff000000
300030c4:	e352047f 	cmp	r2, #2130706432	; 0x7f000000
300030c8:	33a00000 	movcc	r0, #0	; 0x0
300030cc:	31a0f00e 	movcc	pc, lr
300030d0:	e352049e 	cmp	r2, #-1644167168	; 0x9e000000
300030d4:	2a000007 	bcs	300030f8 <__fixsfsi+0x44>
300030d8:	e1a00380 	mov	r0, r0, lsl #7
300030dc:	e3800102 	orr	r0, r0, #-2147483648	; 0x80000000
300030e0:	e1a02c22 	mov	r2, r2, lsr #24
300030e4:	e262209e 	rsb	r2, r2, #158	; 0x9e
300030e8:	e3110102 	tst	r1, #-2147483648	; 0x80000000
300030ec:	e1a00230 	mov	r0, r0, lsr r2
300030f0:	12600000 	rsbne	r0, r0, #0	; 0x0
300030f4:	e1a0f00e 	mov	pc, lr
300030f8:	e33204ff 	teq	r2, #-16777216	; 0xff000000
300030fc:	1a000001 	bne	30003108 <__fixsfsi+0x54>
30003100:	e1b00400 	movs	r0, r0, lsl #8
30003104:	1a000002 	bne	30003114 <__fixsfsi+0x60>
30003108:	e2110102 	ands	r0, r1, #-2147483648	; 0x80000000
3000310c:	03e00102 	mvneq	r0, #-2147483648	; 0x80000000
30003110:	e1a0f00e 	mov	pc, lr
30003114:	e3a00000 	mov	r0, #0	; 0x0
30003118:	e1a0f00e 	mov	pc, lr